libias-media_transport-avb_streamhandler.so.0.0.1:_Z8logToDltIN20IasMediaTransportAvb15IasThreadResultEEiR14DltContextDataRKT_
libias-media_transport-avb_streamhandler.so.0.0.1:_Z8logToDltIN20IasMediaTransportAvb9IasResultEEiR14DltContextDataRKT_
libias-media_transport-avb_streamhandler.so.0.0.1:_Z8logToDltIN20IasMediaTransportAvb9IasThread25IasThreadSchedulingPolicyEEiR14DltContextDataRKT_
libias-media_transport-avb_streamhandler.so.0.0.1:_ZN20IasMediaTransportAvb10PacketH264C1ERKNS_6BufferE
libias-media_transport-avb_streamhandler.so.0.0.1:_ZN20IasMediaTransportAvb10PacketH264C1ERKS0_
libias-media_transport-avb_streamhandler.so.0.0.1:_ZN20IasMediaTransportAvb10PacketH264C1Ev
libias-media_transport-avb_streamhandler.so.0.0.1:_ZN20IasMediaTransportAvb10PacketH264C2ERKNS_6BufferE
libias-media_transport-avb_streamhandler.so.0.0.1:_ZN20IasMediaTransportAvb10PacketH264C2ERKS0_
libias-media_transport-avb_streamhandler.so.0.0.1:_ZN20IasMediaTransportAvb10PacketH264C2Ev
libias-media_transport-avb_streamhandler.so.0.0.1:_ZN20IasMediaTransportAvb10PacketH264aSERKS0_
libias-media_transport-avb_streamhandler.so.0.0.1:_ZN20IasMediaTransportAvb11IasAvbTSpec10initTablesEv
libias-media_transport-avb_streamhandler.so.0.0.1:_ZN20IasMediaTransportAvb12IasAvbPacketC1Ev
libias-media_transport-avb_streamhandler.so.0.0.1:_ZN20IasMediaTransportAvb12IasAvbPacketC2Ev
libias-media_transport-avb_streamhandler.so.0.0.1:_ZN20IasMediaTransportAvb12IasAvbPacketD1Ev
libias-media_transport-avb_streamhandler.so.0.0.1:_ZN20IasMediaTransportAvb12IasAvbPacketD2Ev
libias-media_transport-avb_streamhandler.so.0.0.1:_ZN20IasMediaTransportAvb12IasAvbPacketaSERKS0_
libias-media_transport-avb_streamhandler.so.0.0.1:_ZN20IasMediaTransportAvb12IasAvbStream10deactivateEb
libias-media_transport-avb_streamhandler.so.0.0.1:_ZN20IasMediaTransportAvb12IasAvbStream10initCommonERKNS_11IasAvbTSpecERKNS_14IasAvbStreamIdERA6_Khtb
libias-media_transport-avb_streamhandler.so.0.0.1:_ZN20IasMediaTransportAvb12IasAvbStream11incFramesTxEv
libias-media_transport-avb_streamhandler.so.0.0.1:_ZN20IasMediaTransportAvb12IasAvbStream11initReceiveERKNS_11IasAvbTSpecERKNS_14IasAvbStreamIdERA6_Khtb
libias-media_transport-avb_streamhandler.so.0.0.1:_ZN20IasMediaTransportAvb12IasAvbStream12initTransmitERKNS_11IasAvbTSpecERKNS_14IasAvbStreamIdEjPNS_17IasAvbClockDomainERA6_Khtb
libias-media_transport-avb_streamhandler.so.0.0.1:_ZN20IasMediaTransportAvb12IasAvbStream13preparePacketEm
libias-media_transport-avb_streamhandler.so.0.0.1:_ZN20IasMediaTransportAvb12IasAvbStream14changeStreamIdERKNS_14IasAvbStreamIdE
libias-media_transport-avb_streamhandler.so.0.0.1:_ZN20IasMediaTransportAvb12IasAvbStream14dispatchPacketEPKvmm
libias-media_transport-avb_streamhandler.so.0.0.1:_ZN20IasMediaTransportAvb12IasAvbStream15hookClockDomainEPNS_17IasAvbClockDomainE
libias-media_transport-avb_streamhandler.so.0.0.1:_ZN20IasMediaTransportAvb12IasAvbStream7cleanupEv
libias-media_transport-avb_streamhandler.so.0.0.1:_ZN20IasMediaTransportAvb12IasAvbStream8activateEb
libias-media_transport-avb_streamhandler.so.0.0.1:_ZN20IasMediaTransportAvb12IasAvbStream9doCleanupEv
libias-media_transport-avb_streamhandler.so.0.0.1:_ZN20IasMediaTransportAvb12IasAvbStreamC1ER10DltContextNS_16IasAvbStreamTypeE
libias-media_transport-avb_streamhandler.so.0.0.1:_ZN20IasMediaTransportAvb12IasAvbStreamC2ER10DltContextNS_16IasAvbStreamTypeE
libias-media_transport-avb_streamhandler.so.0.0.1:_ZN20IasMediaTransportAvb12IasAvbStreamD0Ev
libias-media_transport-avb_streamhandler.so.0.0.1:_ZN20IasMediaTransportAvb12IasAvbStreamD1Ev
libias-media_transport-avb_streamhandler.so.0.0.1:_ZN20IasMediaTransportAvb12IasAvbStreamD2Ev
libias-media_transport-avb_streamhandler.so.0.0.1:_ZN20IasMediaTransportAvb12IasDiaLogger20triggerAvbSyncPacketEi
libias-media_transport-avb_streamhandler.so.0.0.1:_ZN20IasMediaTransportAvb12IasDiaLogger21sendDiagnosticMessageEi
libias-media_transport-avb_streamhandler.so.0.0.1:_ZN20IasMediaTransportAvb12IasDiaLogger21triggerEthReadyPacketEi
libias-media_transport-avb_streamhandler.so.0.0.1:_ZN20IasMediaTransportAvb12IasDiaLogger23triggerMediaReadyPacketEib
libias-media_transport-avb_streamhandler.so.0.0.1:_ZN20IasMediaTransportAvb12IasDiaLogger29triggerTalkerMediaReadyPacketEi
libias-media_transport-avb_streamhandler.so.0.0.1:_ZN20IasMediaTransportAvb12IasDiaLogger31triggerListenerMediaReadyPacketEi
libias-media_transport-avb_streamhandler.so.0.0.1:_ZN20IasMediaTransportAvb12IasDiaLogger4initEPNS_30IasAvbStreamHandlerEnvironmentE
libias-media_transport-avb_streamhandler.so.0.0.1:_ZN20IasMediaTransportAvb12IasDiaLogger7cleanupEv
libias-media_transport-avb_streamhandler.so.0.0.1:_ZN20IasMediaTransportAvb12IasDiaLoggerC1Ev
libias-media_transport-avb_streamhandler.so.0.0.1:_ZN20IasMediaTransportAvb12IasDiaLoggerC2Ev
libias-media_transport-avb_streamhandler.so.0.0.1:_ZN20IasMediaTransportAvb12IasDiaLoggerD1Ev
libias-media_transport-avb_streamhandler.so.0.0.1:_ZN20IasMediaTransportAvb12IasDiaLoggerD2Ev
libias-media_transport-avb_streamhandler.so.0.0.1:_ZN20IasMediaTransportAvb12IasIRunnableC1Ev
libias-media_transport-avb_streamhandler.so.0.0.1:_ZN20IasMediaTransportAvb12IasIRunnableC2Ev
libias-media_transport-avb_streamhandler.so.0.0.1:_ZN20IasMediaTransportAvb12IasIRunnableD0Ev
libias-media_transport-avb_streamhandler.so.0.0.1:_ZN20IasMediaTransportAvb12IasIRunnableD1Ev
libias-media_transport-avb_streamhandler.so.0.0.1:_ZN20IasMediaTransportAvb12IasIRunnableD2Ev
libias-media_transport-avb_streamhandler.so.0.0.1:_ZN20IasMediaTransportAvb12PacketMpegTSC1ERKS0_
libias-media_transport-avb_streamhandler.so.0.0.1:_ZN20IasMediaTransportAvb12PacketMpegTSC1ERKbRKNS_6BufferE
libias-media_transport-avb_streamhandler.so.0.0.1:_ZN20IasMediaTransportAvb12PacketMpegTSC1Ev
libias-media_transport-avb_streamhandler.so.0.0.1:_ZN20IasMediaTransportAvb12PacketMpegTSC2ERKS0_
libias-media_transport-avb_streamhandler.so.0.0.1:_ZN20IasMediaTransportAvb12PacketMpegTSC2ERKbRKNS_6BufferE
libias-media_transport-avb_streamhandler.so.0.0.1:_ZN20IasMediaTransportAvb12PacketMpegTSC2Ev
libias-media_transport-avb_streamhandler.so.0.0.1:_ZN20IasMediaTransportAvb12PacketMpegTSaSERKS0_
libias-media_transport-avb_streamhandler.so.0.0.1:_ZN20IasMediaTransportAvb13IasAlsaEngine15getWorkerThreadEt
libias-media_transport-avb_streamhandler.so.0.0.1:_ZN20IasMediaTransportAvb13IasAlsaEngine16createAlsaStreamENS_21IasAvbStreamDirectionEtjNS_17IasAvbAudioFormatEjjhbNSt7__cxx1112basic_stringIcSt11char_traitsIcESaIcEEEtPNS_17IasAvbClockDomainENS_18IasAlsaDeviceTypesEj
libias-media_transport-avb_streamhandler.so.0.0.1:_ZN20IasMediaTransportAvb13IasAlsaEngine17destroyAlsaStreamEtb
libias-media_transport-avb_streamhandler.so.0.0.1:_ZN20IasMediaTransportAvb13IasAlsaEngine19getLocalAudioStreamEt
libias-media_transport-avb_streamhandler.so.0.0.1:_ZN20IasMediaTransportAvb13IasAlsaEngine20assignToWorkerThreadEPNS_22IasAlsaStreamInterfaceEPNS_17IasAvbClockDomainE
libias-media_transport-avb_streamhandler.so.0.0.1:_ZN20IasMediaTransportAvb13IasAlsaEngine22removeFromWorkerThreadEPKNS_22IasAlsaStreamInterfaceE
libias-media_transport-avb_streamhandler.so.0.0.1:_ZN20IasMediaTransportAvb13IasAlsaEngine4initEv
libias-media_transport-avb_streamhandler.so.0.0.1:_ZN20IasMediaTransportAvb13IasAlsaEngine4stopEv
libias-media_transport-avb_streamhandler.so.0.0.1:_ZN20IasMediaTransportAvb13IasAlsaEngine5startEv
libias-media_transport-avb_streamhandler.so.0.0.1:_ZN20IasMediaTransportAvb13IasAlsaEngine7cleanupEv
libias-media_transport-avb_streamhandler.so.0.0.1:_ZN20IasMediaTransportAvb13IasAlsaEngineC1Ev
libias-media_transport-avb_streamhandler.so.0.0.1:_ZN20IasMediaTransportAvb13IasAlsaEngineC2Ev
libias-media_transport-avb_streamhandler.so.0.0.1:_ZN20IasMediaTransportAvb13IasAlsaEngineD0Ev
libias-media_transport-avb_streamhandler.so.0.0.1:_ZN20IasMediaTransportAvb13IasAlsaEngineD1Ev
libias-media_transport-avb_streamhandler.so.0.0.1:_ZN20IasMediaTransportAvb13IasAlsaEngineD2Ev
libias-media_transport-avb_streamhandler.so.0.0.1:_ZN20IasMediaTransportAvb14IasAvbStreamId11setStreamIdEPKh
libias-media_transport-avb_streamhandler.so.0.0.1:_ZN20IasMediaTransportAvb14IasAvbStreamId18setDynamicStreamIdEv
libias-media_transport-avb_streamhandler.so.0.0.1:_ZN20IasMediaTransportAvb14IasAvbStreamIdC1EPh
libias-media_transport-avb_streamhandler.so.0.0.1:_ZN20IasMediaTransportAvb14IasAvbStreamIdC1Em
libias-media_transport-avb_streamhandler.so.0.0.1:_ZN20IasMediaTransportAvb14IasAvbStreamIdC1Ev
libias-media_transport-avb_streamhandler.so.0.0.1:_ZN20IasMediaTransportAvb14IasAvbStreamIdC2EPh
libias-media_transport-avb_streamhandler.so.0.0.1:_ZN20IasMediaTransportAvb14IasAvbStreamIdC2Em
libias-media_transport-avb_streamhandler.so.0.0.1:_ZN20IasMediaTransportAvb14IasAvbStreamIdC2Ev
libias-media_transport-avb_streamhandler.so.0.0.1:_ZN20IasMediaTransportAvb14IasAvbStreamIdD0Ev
libias-media_transport-avb_streamhandler.so.0.0.1:_ZN20IasMediaTransportAvb14IasAvbStreamIdD1Ev
libias-media_transport-avb_streamhandler.so.0.0.1:_ZN20IasMediaTransportAvb14IasAvbStreamIdD2Ev
libias-media_transport-avb_streamhandler.so.0.0.1:_ZN20IasMediaTransportAvb15IasLibPtpDaemon10getIgbTimeERmS1_i
libias-media_transport-avb_streamhandler.so.0.0.1:_ZN20IasMediaTransportAvb15IasLibPtpDaemon10isPtpReadyEv
libias-media_transport-avb_streamhandler.so.0.0.1:_ZN20IasMediaTransportAvb15IasLibPtpDaemon12getLocalTimeEv
libias-media_transport-avb_streamhandler.so.0.0.1:_ZN20IasMediaTransportAvb15IasLibPtpDaemon12getPtpDeviceERNSt7__cxx1112basic_stringIcSt11char_traitsIcESaIcEEE
libias-media_transport-avb_streamhandler.so.0.0.1:_ZN20IasMediaTransportAvb15IasLibPtpDaemon13detectTscFreqEv
libias-media_transport-avb_streamhandler.so.0.0.1:_ZN20IasMediaTransportAvb15IasLibPtpDaemon16getRealLocalTimeEb
libias-media_transport-avb_streamhandler.so.0.0.1:_ZN20IasMediaTransportAvb15IasLibPtpDaemon25calculateConversionCoeffsEv
libias-media_transport-avb_streamhandler.so.0.0.1:_ZN20IasMediaTransportAvb15IasLibPtpDaemon4DiagC1Ev
libias-media_transport-avb_streamhandler.so.0.0.1:_ZN20IasMediaTransportAvb15IasLibPtpDaemon4DiagC2Ev
libias-media_transport-avb_streamhandler.so.0.0.1:_ZN20IasMediaTransportAvb15IasLibPtpDaemon4initEv
libias-media_transport-avb_streamhandler.so.0.0.1:_ZN20IasMediaTransportAvb15IasLibPtpDaemon7cleanUpEv
libias-media_transport-avb_streamhandler.so.0.0.1:_ZN20IasMediaTransportAvb15IasLibPtpDaemonC1ERKNSt7__cxx1112basic_stringIcSt11char_traitsIcESaIcEEERKj
libias-media_transport-avb_streamhandler.so.0.0.1:_ZN20IasMediaTransportAvb15IasLibPtpDaemonC2ERKNSt7__cxx1112basic_stringIcSt11char_traitsIcESaIcEEERKj
libias-media_transport-avb_streamhandler.so.0.0.1:_ZN20IasMediaTransportAvb15IasLibPtpDaemonD0Ev
libias-media_transport-avb_streamhandler.so.0.0.1:_ZN20IasMediaTransportAvb15IasLibPtpDaemonD1Ev
libias-media_transport-avb_streamhandler.so.0.0.1:_ZN20IasMediaTransportAvb15IasLibPtpDaemonD2Ev
libias-media_transport-avb_streamhandler.so.0.0.1:_ZN20IasMediaTransportAvb16IasAvbPacketPool12returnPacketEPNS_12IasAvbPacketE
libias-media_transport-avb_streamhandler.so.0.0.1:_ZN20IasMediaTransportAvb16IasAvbPacketPool14doReturnPacketEPNS_12IasAvbPacketE
libias-media_transport-avb_streamhandler.so.0.0.1:_ZN20IasMediaTransportAvb16IasAvbPacketPool26initAllPacketsFromTemplateEPKNS_12IasAvbPacketE
libias-media_transport-avb_streamhandler.so.0.0.1:_ZN20IasMediaTransportAvb16IasAvbPacketPool4initEmj
libias-media_transport-avb_streamhandler.so.0.0.1:_ZN20IasMediaTransportAvb16IasAvbPacketPool5resetEv
libias-media_transport-avb_streamhandler.so.0.0.1:_ZN20IasMediaTransportAvb16IasAvbPacketPool7cleanupEv
libias-media_transport-avb_streamhandler.so.0.0.1:_ZN20IasMediaTransportAvb16IasAvbPacketPool8initPageEP13igb_dma_allocjRj
libias-media_transport-avb_streamhandler.so.0.0.1:_ZN20IasMediaTransportAvb16IasAvbPacketPool9getPacketEv
libias-media_transport-avb_streamhandler.so.0.0.1:_ZN20IasMediaTransportAvb16IasAvbPacketPoolC1ER10DltContext
libias-media_transport-avb_streamhandler.so.0.0.1:_ZN20IasMediaTransportAvb16IasAvbPacketPoolC2ER10DltContext
libias-media_transport-avb_streamhandler.so.0.0.1:_ZN20IasMediaTransportAvb16IasAvbPacketPoolD1Ev
libias-media_transport-avb_streamhandler.so.0.0.1:_ZN20IasMediaTransportAvb16IasAvbPacketPoolD2Ev
libias-media_transport-avb_streamhandler.so.0.0.1:_ZN20IasMediaTransportAvb17IasAvbAudioStream11initReceiveENS_13IasAvbSrClassEtjNS_17IasAvbAudioFormatERKNS_14IasAvbStreamIdERA6_Khtb
libias-media_transport-avb_streamhandler.so.0.0.1:_ZN20IasMediaTransportAvb17IasAvbAudioStream12initTransmitENS_13IasAvbSrClassEtjNS_17IasAvbAudioFormatERKNS_14IasAvbStreamIdEjPNS_17IasAvbClockDomainERA6_Khb
libias-media_transport-avb_streamhandler.so.0.0.1:_ZN20IasMediaTransportAvb17IasAvbAudioStream13getFormatCodeENS_17IasAvbAudioFormatE
libias-media_transport-avb_streamhandler.so.0.0.1:_ZN20IasMediaTransportAvb17IasAvbAudioStream13getPacketSizeENS_17IasAvbAudioFormatEt
libias-media_transport-avb_streamhandler.so.0.0.1:_ZN20IasMediaTransportAvb17IasAvbAudioStream13getSampleSizeENS_17IasAvbAudioFormatE
libias-media_transport-avb_streamhandler.so.0.0.1:_ZN20IasMediaTransportAvb17IasAvbAudioStream14derivedCleanupEv
libias-media_transport-avb_streamhandler.so.0.0.1:_ZN20IasMediaTransportAvb17IasAvbAudioStream16writeToAvbPacketEPNS_12IasAvbPacketEm
libias-media_transport-avb_streamhandler.so.0.0.1:_ZN20IasMediaTransportAvb17IasAvbAudioStream17activationChangedEv
libias-media_transport-avb_streamhandler.so.0.0.1:_ZN20IasMediaTransportAvb17IasAvbAudioStream17prepareAllPacketsEv
libias-media_transport-avb_streamhandler.so.0.0.1:_ZN20IasMediaTransportAvb17IasAvbAudioStream17readFromAvbPacketEPKvm
libias-media_transport-avb_streamhandler.so.0.0.1:_ZN20IasMediaTransportAvb17IasAvbAudioStream18getMaxTransmitTimeEv
libias-media_transport-avb_streamhandler.so.0.0.1:_ZN20IasMediaTransportAvb17IasAvbAudioStream19signalDiscontinuityENS_34IasLocalAudioStreamClientInterface18DiscontinuityEventEj
libias-media_transport-avb_streamhandler.so.0.0.1:_ZN20IasMediaTransportAvb17IasAvbAudioStream22getSampleFrequencyCodeEj
libias-media_transport-avb_streamhandler.so.0.0.1:_ZN20IasMediaTransportAvb17IasAvbAudioStream23updateRelativeFillLevelEi
libias-media_transport-avb_streamhandler.so.0.0.1:_ZN20IasMediaTransportAvb17IasAvbAudioStream24getMinTransmitBufferSizeEj
libias-media_transport-avb_streamhandler.so.0.0.1:_ZN20IasMediaTransportAvb17IasAvbAudioStream25getCompatibilityModeAudioEv
libias-media_transport-avb_streamhandler.so.0.0.1:_ZN20IasMediaTransportAvb17IasAvbAudioStream9connectToEPNS_19IasLocalAudioStreamE
libias-media_transport-avb_streamhandler.so.0.0.1:_ZN20IasMediaTransportAvb17IasAvbAudioStream9resetTimeEm
libias-media_transport-avb_streamhandler.so.0.0.1:_ZN20IasMediaTransportAvb17IasAvbAudioStreamC1Ev
libias-media_transport-avb_streamhandler.so.0.0.1:_ZN20IasMediaTransportAvb17IasAvbAudioStreamC2Ev
libias-media_transport-avb_streamhandler.so.0.0.1:_ZN20IasMediaTransportAvb17IasAvbAudioStreamD0Ev
libias-media_transport-avb_streamhandler.so.0.0.1:_ZN20IasMediaTransportAvb17IasAvbAudioStreamD1Ev
libias-media_transport-avb_streamhandler.so.0.0.1:_ZN20IasMediaTransportAvb17IasAvbAudioStreamD2Ev
libias-media_transport-avb_streamhandler.so.0.0.1:_ZN20IasMediaTransportAvb17IasAvbClockDomain14registerClientEPNS_32IasAvbClockDomainClientInterfaceE
libias-media_transport-avb_streamhandler.so.0.0.1:_ZN20IasMediaTransportAvb17IasAvbClockDomain15setInitialValueEd
libias-media_transport-avb_streamhandler.so.0.0.1:_ZN20IasMediaTransportAvb17IasAvbClockDomain15updateRateRatioEd
libias-media_transport-avb_streamhandler.so.0.0.1:_ZN20IasMediaTransportAvb17IasAvbClockDomain16lockStateChangedEv
libias-media_transport-avb_streamhandler.so.0.0.1:_ZN20IasMediaTransportAvb17IasAvbClockDomain16unregisterClientEPNS_32IasAvbClockDomainClientInterfaceE
libias-media_transport-avb_streamhandler.so.0.0.1:_ZN20IasMediaTransportAvb17IasAvbClockDomain17setLockThreshold1Ej
libias-media_transport-avb_streamhandler.so.0.0.1:_ZN20IasMediaTransportAvb17IasAvbClockDomain17setLockThreshold2Ej
libias-media_transport-avb_streamhandler.so.0.0.1:_ZN20IasMediaTransportAvb17IasAvbClockDomain20calculateCoefficientEd
libias-media_transport-avb_streamhandler.so.0.0.1:_ZN20IasMediaTransportAvb17IasAvbClockDomain20setDerivationFactorsEdd
libias-media_transport-avb_streamhandler.so.0.0.1:_ZN20IasMediaTransportAvb17IasAvbClockDomain20setDriftCompensationEi
libias-media_transport-avb_streamhandler.so.0.0.1:_ZN20IasMediaTransportAvb17IasAvbClockDomain9setFilterEdj
libias-media_transport-avb_streamhandler.so.0.0.1:_ZN20IasMediaTransportAvb17IasAvbClockDomainC1ER10DltContextNS_21IasAvbClockDomainTypeE
libias-media_transport-avb_streamhandler.so.0.0.1:_ZN20IasMediaTransportAvb17IasAvbClockDomainC2ER10DltContextNS_21IasAvbClockDomainTypeE
libias-media_transport-avb_streamhandler.so.0.0.1:_ZN20IasMediaTransportAvb17IasAvbClockDomainD0Ev
libias-media_transport-avb_streamhandler.so.0.0.1:_ZN20IasMediaTransportAvb17IasAvbClockDomainD1Ev
libias-media_transport-avb_streamhandler.so.0.0.1:_ZN20IasMediaTransportAvb17IasAvbClockDomainD2Ev
libias-media_transport-avb_streamhandler.so.0.0.1:_ZN20IasMediaTransportAvb17IasAvbVideoStream11initReceiveENS_13IasAvbSrClassEttNS_17IasAvbVideoFormatERKNS_14IasAvbStreamIdERA6_Khtb
libias-media_transport-avb_streamhandler.so.0.0.1:_ZN20IasMediaTransportAvb17IasAvbVideoStream12initTransmitENS_13IasAvbSrClassEttNS_17IasAvbVideoFormatERKNS_14IasAvbStreamIdEjPNS_17IasAvbClockDomainERA6_Khb
libias-media_transport-avb_streamhandler.so.0.0.1:_ZN20IasMediaTransportAvb17IasAvbVideoStream13getFormatCodeENS_17IasAvbVideoFormatE
libias-media_transport-avb_streamhandler.so.0.0.1:_ZN20IasMediaTransportAvb17IasAvbVideoStream13preparePacketEm
libias-media_transport-avb_streamhandler.so.0.0.1:_ZN20IasMediaTransportAvb17IasAvbVideoStream14derivedCleanupEv
libias-media_transport-avb_streamhandler.so.0.0.1:_ZN20IasMediaTransportAvb17IasAvbVideoStream16writeToAvbPacketEPNS_12IasAvbPacketEm
libias-media_transport-avb_streamhandler.so.0.0.1:_ZN20IasMediaTransportAvb17IasAvbVideoStream17activationChangedEv
libias-media_transport-avb_streamhandler.so.0.0.1:_ZN20IasMediaTransportAvb17IasAvbVideoStream17finalizeAvbPacketEPNS_19IasLocalVideoBuffer12IasVideoDescE
libias-media_transport-avb_streamhandler.so.0.0.1:_ZN20IasMediaTransportAvb17IasAvbVideoStream17prepareAllPacketsEv
libias-media_transport-avb_streamhandler.so.0.0.1:_ZN20IasMediaTransportAvb17IasAvbVideoStream17readFromAvbPacketEPKvm
libias-media_transport-avb_streamhandler.so.0.0.1:_ZN20IasMediaTransportAvb17IasAvbVideoStream18getVideoFormatCodeENS_17IasAvbVideoFormatE
libias-media_transport-avb_streamhandler.so.0.0.1:_ZN20IasMediaTransportAvb17IasAvbVideoStream19signalDiscontinuityENS_34IasLocalVideoStreamClientInterface18DiscontinuityEventEj
libias-media_transport-avb_streamhandler.so.0.0.1:_ZN20IasMediaTransportAvb17IasAvbVideoStream21prepareDummyAvbPacketEPNS_12IasAvbPacketE
libias-media_transport-avb_streamhandler.so.0.0.1:_ZN20IasMediaTransportAvb17IasAvbVideoStream9connectToEPNS_19IasLocalVideoStreamE
libias-media_transport-avb_streamhandler.so.0.0.1:_ZN20IasMediaTransportAvb17IasAvbVideoStream9resetTimeEb
libias-media_transport-avb_streamhandler.so.0.0.1:_ZN20IasMediaTransportAvb17IasAvbVideoStreamC1Ev
libias-media_transport-avb_streamhandler.so.0.0.1:_ZN20IasMediaTransportAvb17IasAvbVideoStreamC2Ev
libias-media_transport-avb_streamhandler.so.0.0.1:_ZN20IasMediaTransportAvb17IasAvbVideoStreamD0Ev
libias-media_transport-avb_streamhandler.so.0.0.1:_ZN20IasMediaTransportAvb17IasAvbVideoStreamD1Ev
libias-media_transport-avb_streamhandler.so.0.0.1:_ZN20IasMediaTransportAvb17IasAvbVideoStreamD2Ev
libias-media_transport-avb_streamhandler.so.0.0.1:_ZN20IasMediaTransportAvb17IasTestToneStream15GeneratorParamsC1Ev
libias-media_transport-avb_streamhandler.so.0.0.1:_ZN20IasMediaTransportAvb17IasTestToneStream15GeneratorParamsC2Ev
libias-media_transport-avb_streamhandler.so.0.0.1:_ZN20IasMediaTransportAvb17IasTestToneStream16generateSineWaveEPsjRNS0_15GeneratorParamsE
libias-media_transport-avb_streamhandler.so.0.0.1:_ZN20IasMediaTransportAvb17IasTestToneStream16setChannelParamsEtjiNS_18IasAvbTestToneModeEi
libias-media_transport-avb_streamhandler.so.0.0.1:_ZN20IasMediaTransportAvb17IasTestToneStream16setProcessMethodERNS0_11ChannelDataE
libias-media_transport-avb_streamhandler.so.0.0.1:_ZN20IasMediaTransportAvb17IasTestToneStream17generatePulseWaveEPsjRNS0_15GeneratorParamsE
libias-media_transport-avb_streamhandler.so.0.0.1:_ZN20IasMediaTransportAvb17IasTestToneStream20readLocalAudioBufferEtPsjRtRm
libias-media_transport-avb_streamhandler.so.0.0.1:_ZN20IasMediaTransportAvb17IasTestToneStream21writeLocalAudioBufferEtPsjRtj
libias-media_transport-avb_streamhandler.so.0.0.1:_ZN20IasMediaTransportAvb17IasTestToneStream26generateSawtoothWaveRisingEPsjRNS0_15GeneratorParamsE
libias-media_transport-avb_streamhandler.so.0.0.1:_ZN20IasMediaTransportAvb17IasTestToneStream27generateSawtoothWaveFallingEPsjRNS0_15GeneratorParamsE
libias-media_transport-avb_streamhandler.so.0.0.1:_ZN20IasMediaTransportAvb17IasTestToneStream4initEtjh
libias-media_transport-avb_streamhandler.so.0.0.1:_ZN20IasMediaTransportAvb17IasTestToneStream7cleanupEv
libias-media_transport-avb_streamhandler.so.0.0.1:_ZN20IasMediaTransportAvb17IasTestToneStream9calcCoeffEjRNS0_15GeneratorParamsE
libias-media_transport-avb_streamhandler.so.0.0.1:_ZN20IasMediaTransportAvb17IasTestToneStreamC1ER10DltContextt
libias-media_transport-avb_streamhandler.so.0.0.1:_ZN20IasMediaTransportAvb17IasTestToneStreamC2ER10DltContextt
libias-media_transport-avb_streamhandler.so.0.0.1:_ZN20IasMediaTransportAvb17IasTestToneStreamD0Ev
libias-media_transport-avb_streamhandler.so.0.0.1:_ZN20IasMediaTransportAvb17IasTestToneStreamD1Ev
libias-media_transport-avb_streamhandler.so.0.0.1:_ZN20IasMediaTransportAvb17IasTestToneStreamD2Ev
libias-media_transport-avb_streamhandler.so.0.0.1:_ZN20IasMediaTransportAvb18IasAlsaClockDomain15onGetEventCountEv
libias-media_transport-avb_streamhandler.so.0.0.1:_ZN20IasMediaTransportAvb18IasAlsaClockDomainC1Ev
libias-media_transport-avb_streamhandler.so.0.0.1:_ZN20IasMediaTransportAvb18IasAlsaClockDomainC2Ev
libias-media_transport-avb_streamhandler.so.0.0.1:_ZN20IasMediaTransportAvb18IasAlsaClockDomainD0Ev
libias-media_transport-avb_streamhandler.so.0.0.1:_ZN20IasMediaTransportAvb18IasAlsaClockDomainD1Ev
libias-media_transport-avb_streamhandler.so.0.0.1:_ZN20IasMediaTransportAvb18IasAlsaClockDomainD2Ev
libias-media_transport-avb_streamhandler.so.0.0.1:_ZN20IasMediaTransportAvb19IasAlsaWorkerThread13addAlsaStreamEPNS_22IasAlsaStreamInterfaceE
libias-media_transport-avb_streamhandler.so.0.0.1:_ZN20IasMediaTransportAvb19IasAlsaWorkerThread14checkParameterEjjjj
libias-media_transport-avb_streamhandler.so.0.0.1:_ZN20IasMediaTransportAvb19IasAlsaWorkerThread15streamIsHandledEt
libias-media_transport-avb_streamhandler.so.0.0.1:_ZN20IasMediaTransportAvb19IasAlsaWorkerThread16removeAlsaStreamEPKNS_22IasAlsaStreamInterfaceERb
libias-media_transport-avb_streamhandler.so.0.0.1:_ZN20IasMediaTransportAvb19IasAlsaWorkerThread3runEv
libias-media_transport-avb_streamhandler.so.0.0.1:_ZN20IasMediaTransportAvb19IasAlsaWorkerThread4initEPNS_22IasAlsaStreamInterfaceEjjPNS_17IasAvbClockDomainE
libias-media_transport-avb_streamhandler.so.0.0.1:_ZN20IasMediaTransportAvb19IasAlsaWorkerThread4stopEv
libias-media_transport-avb_streamhandler.so.0.0.1:_ZN20IasMediaTransportAvb19IasAlsaWorkerThread5startEv
libias-media_transport-avb_streamhandler.so.0.0.1:_ZN20IasMediaTransportAvb19IasAlsaWorkerThread7cleanupEv
libias-media_transport-avb_streamhandler.so.0.0.1:_ZN20IasMediaTransportAvb19IasAlsaWorkerThread7processEm
libias-media_transport-avb_streamhandler.so.0.0.1:_ZN20IasMediaTransportAvb19IasAlsaWorkerThread8afterRunEv
libias-media_transport-avb_streamhandler.so.0.0.1:_ZN20IasMediaTransportAvb19IasAlsaWorkerThread8shutDownEv
libias-media_transport-avb_streamhandler.so.0.0.1:_ZN20IasMediaTransportAvb19IasAlsaWorkerThread9beforeRunEv
libias-media_transport-avb_streamhandler.so.0.0.1:_ZN20IasMediaTransportAvb19IasAlsaWorkerThreadC1ER10DltContext
libias-media_transport-avb_streamhandler.so.0.0.1:_ZN20IasMediaTransportAvb19IasAlsaWorkerThreadC2ER10DltContext
libias-media_transport-avb_streamhandler.so.0.0.1:_ZN20IasMediaTransportAvb19IasAlsaWorkerThreadD0Ev
libias-media_transport-avb_streamhandler.so.0.0.1:_ZN20IasMediaTransportAvb19IasAlsaWorkerThreadD1Ev
libias-media_transport-avb_streamhandler.so.0.0.1:_ZN20IasMediaTransportAvb19IasAlsaWorkerThreadD2Ev
libias-media_transport-avb_streamhandler.so.0.0.1:_ZN20IasMediaTransportAvb19IasAvbReceiveEngine13bindMcastAddrERA6_Khb
libias-media_transport-avb_streamhandler.so.0.0.1:_ZN20IasMediaTransportAvb19IasAvbReceiveEngine14dispatchPacketERNS0_10StreamDataEPKvmm
libias-media_transport-avb_streamhandler.so.0.0.1:_ZN20IasMediaTransportAvb19IasAvbReceiveEngine16checkStreamStateERNS0_10StreamDataE
libias-media_transport-avb_streamhandler.so.0.0.1:_ZN20IasMediaTransportAvb19IasAvbReceiveEngine16destroyAvbStreamERKNS_14IasAvbStreamIdE
libias-media_transport-avb_streamhandler.so.0.0.1:_ZN20IasMediaTransportAvb19IasAvbReceiveEngine17disconnectStreamsERKNS_14IasAvbStreamIdE
libias-media_transport-avb_streamhandler.so.0.0.1:_ZN20IasMediaTransportAvb19IasAvbReceiveEngine17emergencyShutdownEv
libias-media_transport-avb_streamhandler.so.0.0.1:_ZN20IasMediaTransportAvb19IasAvbReceiveEngine17openReceiveSocketEv
libias-media_transport-avb_streamhandler.so.0.0.1:_ZN20IasMediaTransportAvb19IasAvbReceiveEngine19connectAudioStreamsERKNS_14IasAvbStreamIdEPNS_19IasLocalAudioStreamE
libias-media_transport-avb_streamhandler.so.0.0.1:_ZN20IasMediaTransportAvb19IasAvbReceiveEngine19connectVideoStreamsERKNS_14IasAvbStreamIdEPNS_19IasLocalVideoStreamE
libias-media_transport-avb_streamhandler.so.0.0.1:_ZN20IasMediaTransportAvb19IasAvbReceiveEngine20stopIgbReceiveEngineEv
libias-media_transport-avb_streamhandler.so.0.0.1:_ZN20IasMediaTransportAvb19IasAvbReceiveEngine21startIgbReceiveEngineEv
libias-media_transport-avb_streamhandler.so.0.0.1:_ZN20IasMediaTransportAvb19IasAvbReceiveEngine22registerEventInterfaceEPNS_33IasAvbStreamHandlerEventInterfaceE
libias-media_transport-avb_streamhandler.so.0.0.1:_ZN20IasMediaTransportAvb19IasAvbReceiveEngine24createReceiveAudioStreamENS_13IasAvbSrClassEtjNS_17IasAvbAudioFormatERKNS_14IasAvbStreamIdERA6_Khb
libias-media_transport-avb_streamhandler.so.0.0.1:_ZN20IasMediaTransportAvb19IasAvbReceiveEngine24createReceiveVideoStreamENS_13IasAvbSrClassEttNS_17IasAvbVideoFormatERKNS_14IasAvbStreamIdERA6_Khb
libias-media_transport-avb_streamhandler.so.0.0.1:_ZN20IasMediaTransportAvb19IasAvbReceiveEngine24unregisterEventInterfaceEPNS_33IasAvbStreamHandlerEventInterfaceE
libias-media_transport-avb_streamhandler.so.0.0.1:_ZN20IasMediaTransportAvb19IasAvbReceiveEngine33createReceiveClockReferenceStreamENS_13IasAvbSrClassENS_30IasAvbClockReferenceStreamTypeEtRKNS_14IasAvbStreamIdERA6_Kh
libias-media_transport-avb_streamhandler.so.0.0.1:_ZN20IasMediaTransportAvb19IasAvbReceiveEngine3runEv
libias-media_transport-avb_streamhandler.so.0.0.1:_ZN20IasMediaTransportAvb19IasAvbReceiveEngine4initEv
libias-media_transport-avb_streamhandler.so.0.0.1:_ZN20IasMediaTransportAvb19IasAvbReceiveEngine4stopEv
libias-media_transport-avb_streamhandler.so.0.0.1:_ZN20IasMediaTransportAvb19IasAvbReceiveEngine5startEv
libias-media_transport-avb_streamhandler.so.0.0.1:_ZN20IasMediaTransportAvb19IasAvbReceiveEngine7cleanupEv
libias-media_transport-avb_streamhandler.so.0.0.1:_ZN20IasMediaTransportAvb19IasAvbReceiveEngine8afterRunEv
libias-media_transport-avb_streamhandler.so.0.0.1:_ZN20IasMediaTransportAvb19IasAvbReceiveEngine8shutDownEv
libias-media_transport-avb_streamhandler.so.0.0.1:_ZN20IasMediaTransportAvb19IasAvbReceiveEngine9beforeRunEv
libias-media_transport-avb_streamhandler.so.0.0.1:_ZN20IasMediaTransportAvb19IasAvbReceiveEngineC1Ev
libias-media_transport-avb_streamhandler.so.0.0.1:_ZN20IasMediaTransportAvb19IasAvbReceiveEngineC2Ev
libias-media_transport-avb_streamhandler.so.0.0.1:_ZN20IasMediaTransportAvb19IasAvbReceiveEngineD0Ev
libias-media_transport-avb_streamhandler.so.0.0.1:_ZN20IasMediaTransportAvb19IasAvbReceiveEngineD1Ev
libias-media_transport-avb_streamhandler.so.0.0.1:_ZN20IasMediaTransportAvb19IasAvbReceiveEngineD2Ev
libias-media_transport-avb_streamhandler.so.0.0.1:_ZN20IasMediaTransportAvb19IasAvbStreamHandler12lockApiMutexEv
libias-media_transport-avb_streamhandler.so.0.0.1:_ZN20IasMediaTransportAvb19IasAvbStreamHandler13destroyStreamEm
libias-media_transport-avb_streamhandler.so.0.0.1:_ZN20IasMediaTransportAvb19IasAvbStreamHandler13emergencyStopEv
libias-media_transport-avb_streamhandler.so.0.0.1:_ZN20IasMediaTransportAvb19IasAvbStreamHandler13mapResultCodeENS_22IasAvbProcessingResultE
libias-media_transport-avb_streamhandler.so.0.0.1:_ZN20IasMediaTransportAvb19IasAvbStreamHandler14connectStreamsEmt
libias-media_transport-avb_streamhandler.so.0.0.1:_ZN20IasMediaTransportAvb19IasAvbStreamHandler14registerClientEPNS_34IasAvbStreamHandlerClientInterfaceE
libias-media_transport-avb_streamhandler.so.0.0.1:_ZN20IasMediaTransportAvb19IasAvbStreamHandler14unlockApiMutexEv
libias-media_transport-avb_streamhandler.so.0.0.1:_ZN20IasMediaTransportAvb19IasAvbStreamHandler15setStreamActiveEmb
libias-media_transport-avb_streamhandler.so.0.0.1:_ZN20IasMediaTransportAvb19IasAvbStreamHandler16createAlsaStreamENS_21IasAvbStreamDirectionEtjNS_17IasAvbAudioFormatEjjjhbRKNSt7__cxx1112basic_stringIcSt11char_traitsIcESaIcEEERtNS_18IasAlsaDeviceTypesEj
libias-media_transport-avb_streamhandler.so.0.0.1:_ZN20IasMediaTransportAvb19IasAvbStreamHandler16getAvbStreamInfoERSt6vectorINS_27IasAvbAudioStreamAttributesESaIS2_EERS1_INS_27IasAvbVideoStreamAttributesESaIS6_EERS1_INS_36IasAvbClockReferenceStreamAttributesESaISA_EE
libias-media_transport-avb_streamhandler.so.0.0.1:_ZN20IasMediaTransportAvb19IasAvbStreamHandler16setChannelLayoutEth
libias-media_transport-avb_streamhandler.so.0.0.1:_ZN20IasMediaTransportAvb19IasAvbStreamHandler16unregisterClientEPNS_34IasAvbStreamHandlerClientInterfaceE
libias-media_transport-avb_streamhandler.so.0.0.1:_ZN20IasMediaTransportAvb19IasAvbStreamHandler16updateLinkStatusEb
libias-media_transport-avb_streamhandler.so.0.0.1:_ZN20IasMediaTransportAvb19IasAvbStreamHandler17disconnectStreamsEm
libias-media_transport-avb_streamhandler.so.0.0.1:_ZN20IasMediaTransportAvb19IasAvbStreamHandler17setTestToneParamsEttjiNS_18IasAvbTestToneModeEi
libias-media_transport-avb_streamhandler.so.0.0.1:_ZN20IasMediaTransportAvb19IasAvbStreamHandler18destroyLocalStreamEt
libias-media_transport-avb_streamhandler.so.0.0.1:_ZN20IasMediaTransportAvb19IasAvbStreamHandler18getClockDomainByIdEj
libias-media_transport-avb_streamhandler.so.0.0.1:_ZN20IasMediaTransportAvb19IasAvbStreamHandler18getLocalStreamInfoERSt6vectorINS_29IasLocalAudioStreamAttributesESaIS2_EERS1_INS_29IasLocalVideoStreamAttributesESaIS6_EE
libias-media_transport-avb_streamhandler.so.0.0.1:_ZN20IasMediaTransportAvb19IasAvbStreamHandler18updateStreamStatusEmNS_17IasAvbStreamStateE
libias-media_transport-avb_streamhandler.so.0.0.1:_ZN20IasMediaTransportAvb19IasAvbStreamHandler19createReceiveEngineEv
libias-media_transport-avb_streamhandler.so.0.0.1:_ZN20IasMediaTransportAvb19IasAvbStreamHandler20createTestToneStreamEtjNS_17IasAvbAudioFormatEhRt
libias-media_transport-avb_streamhandler.so.0.0.1:_ZN20IasMediaTransportAvb19IasAvbStreamHandler20createTransmitEngineEv
libias-media_transport-avb_streamhandler.so.0.0.1:_ZN20IasMediaTransportAvb19IasAvbStreamHandler20getNextLocalStreamIdEv
libias-media_transport-avb_streamhandler.so.0.0.1:_ZN20IasMediaTransportAvb19IasAvbStreamHandler20isLocalStreamIdInUseEt
libias-media_transport-avb_streamhandler.so.0.0.1:_ZN20IasMediaTransportAvb19IasAvbStreamHandler21activateMutexHandlingEv
libias-media_transport-avb_streamhandler.so.0.0.1:_ZN20IasMediaTransportAvb19IasAvbStreamHandler22createLocalVideoStreamENS_21IasAvbStreamDirectionEttNS_17IasAvbVideoFormatERKNSt7__cxx1112basic_stringIcSt11char_traitsIcESaIcEEERt
libias-media_transport-avb_streamhandler.so.0.0.1:_ZN20IasMediaTransportAvb19IasAvbStreamHandler22setClockRecoveryParamsEjjj
libias-media_transport-avb_streamhandler.so.0.0.1:_ZN20IasMediaTransportAvb19IasAvbStreamHandler23getLocalAudioStreamByIdEt
libias-media_transport-avb_streamhandler.so.0.0.1:_ZN20IasMediaTransportAvb19IasAvbStreamHandler23getLocalVideoStreamByIdEt
libias-media_transport-avb_streamhandler.so.0.0.1:_ZN20IasMediaTransportAvb19IasAvbStreamHandler24createReceiveAudioStreamENS_13IasAvbSrClassEtjmm
libias-media_transport-avb_streamhandler.so.0.0.1:_ZN20IasMediaTransportAvb19IasAvbStreamHandler24createReceiveVideoStreamENS_13IasAvbSrClassEttNS_17IasAvbVideoFormatEmm
libias-media_transport-avb_streamhandler.so.0.0.1:_ZN20IasMediaTransportAvb19IasAvbStreamHandler25createTransmitAudioStreamENS_13IasAvbSrClassEtjNS_17IasAvbAudioFormatEjNS_18IasAvbIdAssignModeERmS4_b
libias-media_transport-avb_streamhandler.so.0.0.1:_ZN20IasMediaTransportAvb19IasAvbStreamHandler25createTransmitVideoStreamENS_13IasAvbSrClassEttNS_17IasAvbVideoFormatEjNS_18IasAvbIdAssignModeERmS4_b
libias-media_transport-avb_streamhandler.so.0.0.1:_ZN20IasMediaTransportAvb19IasAvbStreamHandler27triggerStorePersistenceDataEv
libias-media_transport-avb_streamhandler.so.0.0.1:_ZN20IasMediaTransportAvb19IasAvbStreamHandler29deriveClockDomainFromRxStreamEmRj
libias-media_transport-avb_streamhandler.so.0.0.1:_ZN20IasMediaTransportAvb19IasAvbStreamHandler33createReceiveClockReferenceStreamENS_13IasAvbSrClassENS_30IasAvbClockReferenceStreamTypeEtmmRj
libias-media_transport-avb_streamhandler.so.0.0.1:_ZN20IasMediaTransportAvb19IasAvbStreamHandler34createTransmitClockReferenceStreamENS_13IasAvbSrClassENS_30IasAvbClockReferenceStreamTypeEttjNS_21IasAvbClockMultiplierEjNS_18IasAvbIdAssignModeERmS5_b
libias-media_transport-avb_streamhandler.so.0.0.1:_ZN20IasMediaTransportAvb19IasAvbStreamHandler4initERKNSt7__cxx1112basic_stringIcSt11char_traitsIcESaIcEEEbiPPcPKc
libias-media_transport-avb_streamhandler.so.0.0.1:_ZN20IasMediaTransportAvb19IasAvbStreamHandler4stopEb
libias-media_transport-avb_streamhandler.so.0.0.1:_ZN20IasMediaTransportAvb19IasAvbStreamHandler5startEb
libias-media_transport-avb_streamhandler.so.0.0.1:_ZN20IasMediaTransportAvb19IasAvbStreamHandler7cleanupEv
libias-media_transport-avb_streamhandler.so.0.0.1:_ZN20IasMediaTransportAvb19IasAvbStreamHandlerC1E15DltLogLevelType
libias-media_transport-avb_streamhandler.so.0.0.1:_ZN20IasMediaTransportAvb19IasAvbStreamHandlerC2E15DltLogLevelType
libias-media_transport-avb_streamhandler.so.0.0.1:_ZN20IasMediaTransportAvb19IasAvbStreamHandlerD0Ev
libias-media_transport-avb_streamhandler.so.0.0.1:_ZN20IasMediaTransportAvb19IasAvbStreamHandlerD1Ev
libias-media_transport-avb_streamhandler.so.0.0.1:_ZN20IasMediaTransportAvb19IasAvbStreamHandlerD2Ev
libias-media_transport-avb_streamhandler.so.0.0.1:_ZN20IasMediaTransportAvb19IasAvbSwClockDomain5resetEj
libias-media_transport-avb_streamhandler.so.0.0.1:_ZN20IasMediaTransportAvb19IasAvbSwClockDomain7advanceEmjj
libias-media_transport-avb_streamhandler.so.0.0.1:_ZN20IasMediaTransportAvb19IasAvbSwClockDomainC1Ev
libias-media_transport-avb_streamhandler.so.0.0.1:_ZN20IasMediaTransportAvb19IasAvbSwClockDomainC2Ev
libias-media_transport-avb_streamhandler.so.0.0.1:_ZN20IasMediaTransportAvb19IasAvbSwClockDomainD0Ev
libias-media_transport-avb_streamhandler.so.0.0.1:_ZN20IasMediaTransportAvb19IasAvbSwClockDomainD1Ev
libias-media_transport-avb_streamhandler.so.0.0.1:_ZN20IasMediaTransportAvb19IasAvbSwClockDomainD2Ev
libias-media_transport-avb_streamhandler.so.0.0.1:_ZN20IasMediaTransportAvb19IasLocalAudioBuffer4initEjb
libias-media_transport-avb_streamhandler.so.0.0.1:_ZN20IasMediaTransportAvb19IasLocalAudioBuffer4readEPsj
libias-media_transport-avb_streamhandler.so.0.0.1:_ZN20IasMediaTransportAvb19IasLocalAudioBuffer4readEPsjj
libias-media_transport-avb_streamhandler.so.0.0.1:_ZN20IasMediaTransportAvb19IasLocalAudioBuffer5resetEj
libias-media_transport-avb_streamhandler.so.0.0.1:_ZN20IasMediaTransportAvb19IasLocalAudioBuffer5writeEPsj
libias-media_transport-avb_streamhandler.so.0.0.1:_ZN20IasMediaTransportAvb19IasLocalAudioBuffer5writeEPsjj
libias-media_transport-avb_streamhandler.so.0.0.1:_ZN20IasMediaTransportAvb19IasLocalAudioBuffer7cleanupEv
libias-media_transport-avb_streamhandler.so.0.0.1:_ZN20IasMediaTransportAvb19IasLocalAudioBuffer8DiagDataC1Ev
libias-media_transport-avb_streamhandler.so.0.0.1:_ZN20IasMediaTransportAvb19IasLocalAudioBuffer8DiagDataC2Ev
libias-media_transport-avb_streamhandler.so.0.0.1:_ZN20IasMediaTransportAvb19IasLocalAudioBufferC1Ev
libias-media_transport-avb_streamhandler.so.0.0.1:_ZN20IasMediaTransportAvb19IasLocalAudioBufferC2Ev
libias-media_transport-avb_streamhandler.so.0.0.1:_ZN20IasMediaTransportAvb19IasLocalAudioBufferD0Ev
libias-media_transport-avb_streamhandler.so.0.0.1:_ZN20IasMediaTransportAvb19IasLocalAudioBufferD1Ev
libias-media_transport-avb_streamhandler.so.0.0.1:_ZN20IasMediaTransportAvb19IasLocalAudioBufferD2Ev
libias-media_transport-avb_streamhandler.so.0.0.1:_ZN20IasMediaTransportAvb19IasLocalAudioStream10disconnectEv
libias-media_transport-avb_streamhandler.so.0.0.1:_ZN20IasMediaTransportAvb19IasLocalAudioStream15setClientActiveEb
libias-media_transport-avb_streamhandler.so.0.0.1:_ZN20IasMediaTransportAvb19IasLocalAudioStream15setWorkerActiveEb
libias-media_transport-avb_streamhandler.so.0.0.1:_ZN20IasMediaTransportAvb19IasLocalAudioStream17updateRxTimestampEj
libias-media_transport-avb_streamhandler.so.0.0.1:_ZN20IasMediaTransportAvb19IasLocalAudioStream19getCurrentTimestampEv
libias-media_transport-avb_streamhandler.so.0.0.1:_ZN20IasMediaTransportAvb19IasLocalAudioStream20readLocalAudioBufferEtPsjRtRm
libias-media_transport-avb_streamhandler.so.0.0.1:_ZN20IasMediaTransportAvb19IasLocalAudioStream21writeLocalAudioBufferEtPsjRtj
libias-media_transport-avb_streamhandler.so.0.0.1:_ZN20IasMediaTransportAvb19IasLocalAudioStream24dumpFromLocalAudioBufferERt
libias-media_transport-avb_streamhandler.so.0.0.1:_ZN20IasMediaTransportAvb19IasLocalAudioStream4initEhtbjjj
libias-media_transport-avb_streamhandler.so.0.0.1:_ZN20IasMediaTransportAvb19IasLocalAudioStream7cleanupEv
libias-media_transport-avb_streamhandler.so.0.0.1:_ZN20IasMediaTransportAvb19IasLocalAudioStream7connectEPNS_34IasLocalAudioStreamClientInterfaceE
libias-media_transport-avb_streamhandler.so.0.0.1:_ZN20IasMediaTransportAvb19IasLocalAudioStreamC1ER10DltContextNS_21IasAvbStreamDirectionENS_18IasLocalStreamTypeEt
libias-media_transport-avb_streamhandler.so.0.0.1:_ZN20IasMediaTransportAvb19IasLocalAudioStreamC2ER10DltContextNS_21IasAvbStreamDirectionENS_18IasLocalStreamTypeEt
libias-media_transport-avb_streamhandler.so.0.0.1:_ZN20IasMediaTransportAvb19IasLocalAudioStreamD0Ev
libias-media_transport-avb_streamhandler.so.0.0.1:_ZN20IasMediaTransportAvb19IasLocalAudioStreamD1Ev
libias-media_transport-avb_streamhandler.so.0.0.1:_ZN20IasMediaTransportAvb19IasLocalAudioStreamD2Ev
libias-media_transport-avb_streamhandler.so.0.0.1:_ZN20IasMediaTransportAvb19IasLocalVideoBuffer11writeMpegTSEPNS0_12IasVideoDescE
libias-media_transport-avb_streamhandler.so.0.0.1:_ZN20IasMediaTransportAvb19IasLocalVideoBuffer4initEttb
libias-media_transport-avb_streamhandler.so.0.0.1:_ZN20IasMediaTransportAvb19IasLocalVideoBuffer4readEPvPNS0_12IasVideoDescE
libias-media_transport-avb_streamhandler.so.0.0.1:_ZN20IasMediaTransportAvb19IasLocalVideoBuffer5resetEj
libias-media_transport-avb_streamhandler.so.0.0.1:_ZN20IasMediaTransportAvb19IasLocalVideoBuffer7cleanupEv
libias-media_transport-avb_streamhandler.so.0.0.1:_ZN20IasMediaTransportAvb19IasLocalVideoBuffer9writeH264EPNS0_12IasVideoDescE
libias-media_transport-avb_streamhandler.so.0.0.1:_ZN20IasMediaTransportAvb19IasLocalVideoBufferC1Ev
libias-media_transport-avb_streamhandler.so.0.0.1:_ZN20IasMediaTransportAvb19IasLocalVideoBufferC2Ev
libias-media_transport-avb_streamhandler.so.0.0.1:_ZN20IasMediaTransportAvb19IasLocalVideoBufferD0Ev
libias-media_transport-avb_streamhandler.so.0.0.1:_ZN20IasMediaTransportAvb19IasLocalVideoBufferD1Ev
libias-media_transport-avb_streamhandler.so.0.0.1:_ZN20IasMediaTransportAvb19IasLocalVideoBufferD2Ev
libias-media_transport-avb_streamhandler.so.0.0.1:_ZN20IasMediaTransportAvb19IasLocalVideoStream10disconnectEv
libias-media_transport-avb_streamhandler.so.0.0.1:_ZN20IasMediaTransportAvb19IasLocalVideoStream15setClientActiveEb
libias-media_transport-avb_streamhandler.so.0.0.1:_ZN20IasMediaTransportAvb19IasLocalVideoStream16setAvbPacketPoolEPNS_16IasAvbPacketPoolE
libias-media_transport-avb_streamhandler.so.0.0.1:_ZN20IasMediaTransportAvb19IasLocalVideoStream20readLocalVideoBufferEPNS_19IasLocalVideoBufferEPNS1_12IasVideoDescE
libias-media_transport-avb_streamhandler.so.0.0.1:_ZN20IasMediaTransportAvb19IasLocalVideoStream21writeLocalVideoBufferEPNS_19IasLocalVideoBufferEPNS1_12IasVideoDescE
libias-media_transport-avb_streamhandler.so.0.0.1:_ZN20IasMediaTransportAvb19IasLocalVideoStream4initENS_17IasAvbVideoFormatEtttb
libias-media_transport-avb_streamhandler.so.0.0.1:_ZN20IasMediaTransportAvb19IasLocalVideoStream7cleanupEv
libias-media_transport-avb_streamhandler.so.0.0.1:_ZN20IasMediaTransportAvb19IasLocalVideoStream7connectEPNS_34IasLocalVideoStreamClientInterfaceE
libias-media_transport-avb_streamhandler.so.0.0.1:_ZN20IasMediaTransportAvb19IasLocalVideoStreamC1ER10DltContextNS_21IasAvbStreamDirectionENS_18IasLocalStreamTypeEt
libias-media_transport-avb_streamhandler.so.0.0.1:_ZN20IasMediaTransportAvb19IasLocalVideoStreamC2ER10DltContextNS_21IasAvbStreamDirectionENS_18IasLocalStreamTypeEt
libias-media_transport-avb_streamhandler.so.0.0.1:_ZN20IasMediaTransportAvb19IasLocalVideoStreamD0Ev
libias-media_transport-avb_streamhandler.so.0.0.1:_ZN20IasMediaTransportAvb19IasLocalVideoStreamD1Ev
libias-media_transport-avb_streamhandler.so.0.0.1:_ZN20IasMediaTransportAvb19IasLocalVideoStreamD2Ev
libias-media_transport-avb_streamhandler.so.0.0.1:_ZN20IasMediaTransportAvb20IasAvbPtpClockDomain15onGetEventCountEv
libias-media_transport-avb_streamhandler.so.0.0.1:_ZN20IasMediaTransportAvb20IasAvbPtpClockDomainC1Ev
libias-media_transport-avb_streamhandler.so.0.0.1:_ZN20IasMediaTransportAvb20IasAvbPtpClockDomainC2Ev
libias-media_transport-avb_streamhandler.so.0.0.1:_ZN20IasMediaTransportAvb20IasAvbPtpClockDomainD0Ev
libias-media_transport-avb_streamhandler.so.0.0.1:_ZN20IasMediaTransportAvb20IasAvbPtpClockDomainD1Ev
libias-media_transport-avb_streamhandler.so.0.0.1:_ZN20IasMediaTransportAvb20IasAvbPtpClockDomainD2Ev
libias-media_transport-avb_streamhandler.so.0.0.1:_ZN20IasMediaTransportAvb20IasAvbRawClockDomain15onGetEventCountEv
libias-media_transport-avb_streamhandler.so.0.0.1:_ZN20IasMediaTransportAvb20IasAvbRawClockDomainC1Ev
libias-media_transport-avb_streamhandler.so.0.0.1:_ZN20IasMediaTransportAvb20IasAvbRawClockDomainC2Ev
libias-media_transport-avb_streamhandler.so.0.0.1:_ZN20IasMediaTransportAvb20IasAvbRawClockDomainD0Ev
libias-media_transport-avb_streamhandler.so.0.0.1:_ZN20IasMediaTransportAvb20IasAvbRawClockDomainD1Ev
libias-media_transport-avb_streamhandler.so.0.0.1:_ZN20IasMediaTransportAvb20IasAvbRawClockDomainD2Ev
libias-media_transport-avb_streamhandler.so.0.0.1:_ZN20IasMediaTransportAvb20IasAvbTransmitEngine13updateShapersEv
libias-media_transport-avb_streamhandler.so.0.0.1:_ZN20IasMediaTransportAvb20IasAvbTransmitEngine16destroyAvbStreamERKNS_14IasAvbStreamIdE
libias-media_transport-avb_streamhandler.so.0.0.1:_ZN20IasMediaTransportAvb20IasAvbTransmitEngine16updateLinkStatusEb
libias-media_transport-avb_streamhandler.so.0.0.1:_ZN20IasMediaTransportAvb20IasAvbTransmitEngine17activateAvbStreamERKNS_14IasAvbStreamIdE
libias-media_transport-avb_streamhandler.so.0.0.1:_ZN20IasMediaTransportAvb20IasAvbTransmitEngine17disconnectStreamsERKNS_14IasAvbStreamIdE
libias-media_transport-avb_streamhandler.so.0.0.1:_ZN20IasMediaTransportAvb20IasAvbTransmitEngine18updateStreamStatusEmNS_17IasAvbStreamStateE
libias-media_transport-avb_streamhandler.so.0.0.1:_ZN20IasMediaTransportAvb20IasAvbTransmitEngine19connectAudioStreamsERKNS_14IasAvbStreamIdEPNS_19IasLocalAudioStreamE
libias-media_transport-avb_streamhandler.so.0.0.1:_ZN20IasMediaTransportAvb20IasAvbTransmitEngine19connectVideoStreamsERKNS_14IasAvbStreamIdEPNS_19IasLocalVideoStreamE
libias-media_transport-avb_streamhandler.so.0.0.1:_ZN20IasMediaTransportAvb20IasAvbTransmitEngine19deactivateAvbStreamERKNS_14IasAvbStreamIdE
libias-media_transport-avb_streamhandler.so.0.0.1:_ZN20IasMediaTransportAvb20IasAvbTransmitEngine22registerEventInterfaceEPNS_33IasAvbStreamHandlerEventInterfaceE
libias-media_transport-avb_streamhandler.so.0.0.1:_ZN20IasMediaTransportAvb20IasAvbTransmitEngine23createSequencerOnDemandENS_13IasAvbSrClassE
libias-media_transport-avb_streamhandler.so.0.0.1:_ZN20IasMediaTransportAvb20IasAvbTransmitEngine24unregisterEventInterfaceEPNS_33IasAvbStreamHandlerEventInterfaceE
libias-media_transport-avb_streamhandler.so.0.0.1:_ZN20IasMediaTransportAvb20IasAvbTransmitEngine25createTransmitAudioStreamENS_13IasAvbSrClassEtjNS_17IasAvbAudioFormatEPNS_17IasAvbClockDomainERKNS_14IasAvbStreamIdERA6_Khb
libias-media_transport-avb_streamhandler.so.0.0.1:_ZN20IasMediaTransportAvb20IasAvbTransmitEngine25createTransmitVideoStreamENS_13IasAvbSrClassEttNS_17IasAvbVideoFormatEPNS_17IasAvbClockDomainERKNS_14IasAvbStreamIdERA6_Khb
libias-media_transport-avb_streamhandler.so.0.0.1:_ZN20IasMediaTransportAvb20IasAvbTransmitEngine34createTransmitClockReferenceStreamENS_13IasAvbSrClassENS_30IasAvbClockReferenceStreamTypeEttjNS_21IasAvbClockMultiplierEPNS_17IasAvbClockDomainERKNS_14IasAvbStreamIdERA6_Kh
libias-media_transport-avb_streamhandler.so.0.0.1:_ZN20IasMediaTransportAvb20IasAvbTransmitEngine4initEv
libias-media_transport-avb_streamhandler.so.0.0.1:_ZN20IasMediaTransportAvb20IasAvbTransmitEngine4stopEv
libias-media_transport-avb_streamhandler.so.0.0.1:_ZN20IasMediaTransportAvb20IasAvbTransmitEngine5startEv
libias-media_transport-avb_streamhandler.so.0.0.1:_ZN20IasMediaTransportAvb20IasAvbTransmitEngine7cleanupEv
libias-media_transport-avb_streamhandler.so.0.0.1:_ZN20IasMediaTransportAvb20IasAvbTransmitEngineC1Ev
libias-media_transport-avb_streamhandler.so.0.0.1:_ZN20IasMediaTransportAvb20IasAvbTransmitEngineC2Ev
libias-media_transport-avb_streamhandler.so.0.0.1:_ZN20IasMediaTransportAvb20IasAvbTransmitEngineD0Ev
libias-media_transport-avb_streamhandler.so.0.0.1:_ZN20IasMediaTransportAvb20IasAvbTransmitEngineD1Ev
libias-media_transport-avb_streamhandler.so.0.0.1:_ZN20IasMediaTransportAvb20IasAvbTransmitEngineD2Ev
libias-media_transport-avb_streamhandler.so.0.0.1:_ZN20IasMediaTransportAvb21IasAvbClockController17notifyUpdateRatioEPKNS_17IasAvbClockDomainE
libias-media_transport-avb_streamhandler.so.0.0.1:_ZN20IasMediaTransportAvb21IasAvbClockController21notifyUpdateLockStateEPKNS_17IasAvbClockDomainE
libias-media_transport-avb_streamhandler.so.0.0.1:_ZN20IasMediaTransportAvb21IasAvbClockController3runEv
libias-media_transport-avb_streamhandler.so.0.0.1:_ZN20IasMediaTransportAvb21IasAvbClockController4initEPNS_17IasAvbClockDomainES2_j
libias-media_transport-avb_streamhandler.so.0.0.1:_ZN20IasMediaTransportAvb21IasAvbClockController7cleanupEv
libias-media_transport-avb_streamhandler.so.0.0.1:_ZN20IasMediaTransportAvb21IasAvbClockController8afterRunEv
libias-media_transport-avb_streamhandler.so.0.0.1:_ZN20IasMediaTransportAvb21IasAvbClockController8shutDownEv
libias-media_transport-avb_streamhandler.so.0.0.1:_ZN20IasMediaTransportAvb21IasAvbClockController9beforeRunEv
libias-media_transport-avb_streamhandler.so.0.0.1:_ZN20IasMediaTransportAvb21IasAvbClockController9setLimitsEv
libias-media_transport-avb_streamhandler.so.0.0.1:_ZN20IasMediaTransportAvb21IasAvbClockControllerC1Ev
libias-media_transport-avb_streamhandler.so.0.0.1:_ZN20IasMediaTransportAvb21IasAvbClockControllerC2Ev
libias-media_transport-avb_streamhandler.so.0.0.1:_ZN20IasMediaTransportAvb21IasAvbClockControllerD0Ev
libias-media_transport-avb_streamhandler.so.0.0.1:_ZN20IasMediaTransportAvb21IasAvbClockControllerD1Ev
libias-media_transport-avb_streamhandler.so.0.0.1:_ZN20IasMediaTransportAvb21IasAvbClockControllerD2Ev
libias-media_transport-avb_streamhandler.so.0.0.1:_ZN20IasMediaTransportAvb21IasAvbVideoRingBuffer11beginAccessENS_19IasRingBufferAccessEPPvPjS4_
libias-media_transport-avb_streamhandler.so.0.0.1:_ZN20IasMediaTransportAvb21IasAvbVideoRingBuffer15resetFromReaderEv
libias-media_transport-avb_streamhandler.so.0.0.1:_ZN20IasMediaTransportAvb21IasAvbVideoRingBuffer15resetFromWriterEv
libias-media_transport-avb_streamhandler.so.0.0.1:_ZN20IasMediaTransportAvb21IasAvbVideoRingBuffer15updateAvailableENS_19IasRingBufferAccessEPj
libias-media_transport-avb_streamhandler.so.0.0.1:_ZN20IasMediaTransportAvb21IasAvbVideoRingBuffer4initEjjPvbPNS_24IasAvbVideoRingBufferShmE
libias-media_transport-avb_streamhandler.so.0.0.1:_ZN20IasMediaTransportAvb21IasAvbVideoRingBuffer5setupEPNS_24IasAvbVideoRingBufferShmE
libias-media_transport-avb_streamhandler.so.0.0.1:_ZN20IasMediaTransportAvb21IasAvbVideoRingBuffer7cleanupEv
libias-media_transport-avb_streamhandler.so.0.0.1:_ZN20IasMediaTransportAvb21IasAvbVideoRingBuffer7zeroOutEv
libias-media_transport-avb_streamhandler.so.0.0.1:_ZN20IasMediaTransportAvb21IasAvbVideoRingBuffer8waitReadEjj
libias-media_transport-avb_streamhandler.so.0.0.1:_ZN20IasMediaTransportAvb21IasAvbVideoRingBuffer9endAccessENS_19IasRingBufferAccessEjj
libias-media_transport-avb_streamhandler.so.0.0.1:_ZN20IasMediaTransportAvb21IasAvbVideoRingBuffer9waitWriteEjj
libias-media_transport-avb_streamhandler.so.0.0.1:_ZN20IasMediaTransportAvb21IasAvbVideoRingBufferC1Ev
libias-media_transport-avb_streamhandler.so.0.0.1:_ZN20IasMediaTransportAvb21IasAvbVideoRingBufferC2Ev
libias-media_transport-avb_streamhandler.so.0.0.1:_ZN20IasMediaTransportAvb21IasAvbVideoRingBufferD1Ev
libias-media_transport-avb_streamhandler.so.0.0.1:_ZN20IasMediaTransportAvb21IasAvbVideoRingBufferD2Ev
libias-media_transport-avb_streamhandler.so.0.0.1:_ZN20IasMediaTransportAvb21IasLocalVideoInStream12resetBuffersEv
libias-media_transport-avb_streamhandler.so.0.0.1:_ZN20IasMediaTransportAvb21IasLocalVideoInStream18updateBufferStatusEv
libias-media_transport-avb_streamhandler.so.0.0.1:_ZN20IasMediaTransportAvb21IasLocalVideoInStream20eventOnNewPacketH264ERKNS_10PacketH264E
libias-media_transport-avb_streamhandler.so.0.0.1:_ZN20IasMediaTransportAvb21IasLocalVideoInStream22eventOnNewPacketMpegTSERKNS_12PacketMpegTSE
libias-media_transport-avb_streamhandler.so.0.0.1:_ZN20IasMediaTransportAvb21IasLocalVideoInStream3runEv
libias-media_transport-avb_streamhandler.so.0.0.1:_ZN20IasMediaTransportAvb21IasLocalVideoInStream4initENSt7__cxx1112basic_stringIcSt11char_traitsIcESaIcEEEttNS_17IasAvbVideoFormatEtjb
libias-media_transport-avb_streamhandler.so.0.0.1:_ZN20IasMediaTransportAvb21IasLocalVideoInStream4stopEv
libias-media_transport-avb_streamhandler.so.0.0.1:_ZN20IasMediaTransportAvb21IasLocalVideoInStream5startEv
libias-media_transport-avb_streamhandler.so.0.0.1:_ZN20IasMediaTransportAvb21IasLocalVideoInStream7cleanupEv
libias-media_transport-avb_streamhandler.so.0.0.1:_ZN20IasMediaTransportAvb21IasLocalVideoInStream7copyJobEv
libias-media_transport-avb_streamhandler.so.0.0.1:_ZN20IasMediaTransportAvb21IasLocalVideoInStream8afterRunEv
libias-media_transport-avb_streamhandler.so.0.0.1:_ZN20IasMediaTransportAvb21IasLocalVideoInStream8shutDownEv
libias-media_transport-avb_streamhandler.so.0.0.1:_ZN20IasMediaTransportAvb21IasLocalVideoInStream9beforeRunEv
libias-media_transport-avb_streamhandler.so.0.0.1:_ZN20IasMediaTransportAvb21IasLocalVideoInStreamC1ER10DltContextt
libias-media_transport-avb_streamhandler.so.0.0.1:_ZN20IasMediaTransportAvb21IasLocalVideoInStreamC2ER10DltContextt
libias-media_transport-avb_streamhandler.so.0.0.1:_ZN20IasMediaTransportAvb21IasLocalVideoInStreamD0Ev
libias-media_transport-avb_streamhandler.so.0.0.1:_ZN20IasMediaTransportAvb21IasLocalVideoInStreamD1Ev
libias-media_transport-avb_streamhandler.so.0.0.1:_ZN20IasMediaTransportAvb21IasLocalVideoInStreamD2Ev
libias-media_transport-avb_streamhandler.so.0.0.1:_ZN20IasMediaTransportAvb22IasAlsaHwDeviceHandler11initHandlerEN8IasAudio13IasDeviceTypeE
libias-media_transport-avb_streamhandler.so.0.0.1:_ZN20IasMediaTransportAvb22IasAlsaHwDeviceHandler12resetBuffersEv
libias-media_transport-avb_streamhandler.so.0.0.1:_ZN20IasMediaTransportAvb22IasAlsaHwDeviceHandler12set_hwparamsEP8_snd_pcmN8IasAudio24IasAudioCommonDataFormatEjjjjPiS5_
libias-media_transport-avb_streamhandler.so.0.0.1:_ZN20IasMediaTransportAvb22IasAlsaHwDeviceHandler12set_swparamsEP8_snd_pcmii
libias-media_transport-avb_streamhandler.so.0.0.1:_ZN20IasMediaTransportAvb22IasAlsaHwDeviceHandler13setDeviceTypeEN8IasAudio13IasDeviceTypeE
libias-media_transport-avb_streamhandler.so.0.0.1:_ZN20IasMediaTransportAvb22IasAlsaHwDeviceHandler15setNonBlockModeEb
libias-media_transport-avb_streamhandler.so.0.0.1:_ZN20IasMediaTransportAvb22IasAlsaHwDeviceHandler18updateBufferStatusEv
libias-media_transport-avb_streamhandler.so.0.0.1:_ZN20IasMediaTransportAvb22IasAlsaHwDeviceHandler21writeLocalAudioBufferEtPsjRtj
libias-media_transport-avb_streamhandler.so.0.0.1:_ZN20IasMediaTransportAvb22IasAlsaHwDeviceHandler4initEtjjjjjNS_17IasAvbAudioFormatEhbNSt7__cxx1112basic_stringIcSt11char_traitsIcESaIcEEENS_18IasAlsaDeviceTypesE
libias-media_transport-avb_streamhandler.so.0.0.1:_ZN20IasMediaTransportAvb22IasAlsaHwDeviceHandler4stopEv
libias-media_transport-avb_streamhandler.so.0.0.1:_ZN20IasMediaTransportAvb22IasAlsaHwDeviceHandler5resetEv
libias-media_transport-avb_streamhandler.so.0.0.1:_ZN20IasMediaTransportAvb22IasAlsaHwDeviceHandler5startEv
libias-media_transport-avb_streamhandler.so.0.0.1:_ZN20IasMediaTransportAvb22IasAlsaHwDeviceHandler7cleanupEv
libias-media_transport-avb_streamhandler.so.0.0.1:_ZN20IasMediaTransportAvb22IasAlsaHwDeviceHandlerC1ER10DltContextNS_21IasAvbStreamDirectionEtSt10shared_ptrIN8IasAudio20IasAudioDeviceParamsEE
libias-media_transport-avb_streamhandler.so.0.0.1:_ZN20IasMediaTransportAvb22IasAlsaHwDeviceHandlerC2ER10DltContextNS_21IasAvbStreamDirectionEtSt10shared_ptrIN8IasAudio20IasAudioDeviceParamsEE
libias-media_transport-avb_streamhandler.so.0.0.1:_ZN20IasMediaTransportAvb22IasAlsaHwDeviceHandlerD0Ev
libias-media_transport-avb_streamhandler.so.0.0.1:_ZN20IasMediaTransportAvb22IasAlsaHwDeviceHandlerD1Ev
libias-media_transport-avb_streamhandler.so.0.0.1:_ZN20IasMediaTransportAvb22IasAlsaHwDeviceHandlerD2Ev
libias-media_transport-avb_streamhandler.so.0.0.1:_ZN20IasMediaTransportAvb22IasAvbAudioShmProvider14resetShmBufferENS0_11bufferStateE
libias-media_transport-avb_streamhandler.so.0.0.1:_ZN20IasMediaTransportAvb22IasAvbAudioShmProvider14resetShmBufferENS0_11bufferStateEj
libias-media_transport-avb_streamhandler.so.0.0.1:_ZN20IasMediaTransportAvb22IasAvbAudioShmProvider16setHwConstraintsEv
libias-media_transport-avb_streamhandler.so.0.0.1:_ZN20IasMediaTransportAvb22IasAvbAudioShmProvider17abortTransmissionEv
libias-media_transport-avb_streamhandler.so.0.0.1:_ZN20IasMediaTransportAvb22IasAvbAudioShmProvider4initEtjjjb
libias-media_transport-avb_streamhandler.so.0.0.1:_ZN20IasMediaTransportAvb22IasAvbAudioShmProvider7cleanupEv
libias-media_transport-avb_streamhandler.so.0.0.1:_ZN20IasMediaTransportAvb22IasAvbAudioShmProvider7copyJobERKSt6vectorIPNS_19IasLocalAudioBufferESaIS3_EEPNS_23IasLocalAudioBufferDescEjbm
libias-media_transport-avb_streamhandler.so.0.0.1:_ZN20IasMediaTransportAvb22IasAvbAudioShmProvider9ipcThreadEv
libias-media_transport-avb_streamhandler.so.0.0.1:_ZN20IasMediaTransportAvb22IasAvbAudioShmProviderC1ERKNSt7__cxx1112basic_stringIcSt11char_traitsIcESaIcEEE
libias-media_transport-avb_streamhandler.so.0.0.1:_ZN20IasMediaTransportAvb22IasAvbAudioShmProviderC2ERKNSt7__cxx1112basic_stringIcSt11char_traitsIcESaIcEEE
libias-media_transport-avb_streamhandler.so.0.0.1:_ZN20IasMediaTransportAvb22IasAvbAudioShmProviderD1Ev
libias-media_transport-avb_streamhandler.so.0.0.1:_ZN20IasMediaTransportAvb22IasAvbAudioShmProviderD2Ev
libias-media_transport-avb_streamhandler.so.0.0.1:_ZN20IasMediaTransportAvb22IasAvbDiagnosticPacket10writeFieldEPKvjNS0_11FieldOffsetE
libias-media_transport-avb_streamhandler.so.0.0.1:_ZN20IasMediaTransportAvb22IasAvbDiagnosticPacket22writeNetworkOrderFieldEjNS0_11FieldOffsetE
libias-media_transport-avb_streamhandler.so.0.0.1:_ZN20IasMediaTransportAvb22IasAvbDiagnosticPacket22writeNetworkOrderFieldEmNS0_11FieldOffsetE
libias-media_transport-avb_streamhandler.so.0.0.1:_ZN20IasMediaTransportAvb22IasAvbDiagnosticPacket22writeNetworkOrderFieldEtNS0_11FieldOffsetE
libias-media_transport-avb_streamhandler.so.0.0.1:_ZN20IasMediaTransportAvb22IasAvbDiagnosticPacket4initEv
libias-media_transport-avb_streamhandler.so.0.0.1:_ZN20IasMediaTransportAvb22IasAvbDiagnosticPacketC1Ev
libias-media_transport-avb_streamhandler.so.0.0.1:_ZN20IasMediaTransportAvb22IasAvbDiagnosticPacketC2Ev
libias-media_transport-avb_streamhandler.so.0.0.1:_ZN20IasMediaTransportAvb22IasAvbDiagnosticPacketD1Ev
libias-media_transport-avb_streamhandler.so.0.0.1:_ZN20IasMediaTransportAvb22IasAvbDiagnosticPacketD2Ev
libias-media_transport-avb_streamhandler.so.0.0.1:_ZN20IasMediaTransportAvb22IasLocalVideoOutStream11pushPayloadERKNS_10PacketH264E
libias-media_transport-avb_streamhandler.so.0.0.1:_ZN20IasMediaTransportAvb22IasLocalVideoOutStream11pushPayloadERKNS_12PacketMpegTSE
libias-media_transport-avb_streamhandler.so.0.0.1:_ZN20IasMediaTransportAvb22IasLocalVideoOutStream12resetBuffersEv
libias-media_transport-avb_streamhandler.so.0.0.1:_ZN20IasMediaTransportAvb22IasLocalVideoOutStream18updateBufferStatusEv
libias-media_transport-avb_streamhandler.so.0.0.1:_ZN20IasMediaTransportAvb22IasLocalVideoOutStream21writeLocalVideoBufferEPNS_19IasLocalVideoBufferEPNS1_12IasVideoDescE
libias-media_transport-avb_streamhandler.so.0.0.1:_ZN20IasMediaTransportAvb22IasLocalVideoOutStream4initENSt7__cxx1112basic_stringIcSt11char_traitsIcESaIcEEEttNS_17IasAvbVideoFormatEtjb
libias-media_transport-avb_streamhandler.so.0.0.1:_ZN20IasMediaTransportAvb22IasLocalVideoOutStream7cleanupEv
libias-media_transport-avb_streamhandler.so.0.0.1:_ZN20IasMediaTransportAvb22IasLocalVideoOutStreamC1ER10DltContextt
libias-media_transport-avb_streamhandler.so.0.0.1:_ZN20IasMediaTransportAvb22IasLocalVideoOutStreamC2ER10DltContextt
libias-media_transport-avb_streamhandler.so.0.0.1:_ZN20IasMediaTransportAvb22IasLocalVideoOutStreamD0Ev
libias-media_transport-avb_streamhandler.so.0.0.1:_ZN20IasMediaTransportAvb22IasLocalVideoOutStreamD1Ev
libias-media_transport-avb_streamhandler.so.0.0.1:_ZN20IasMediaTransportAvb22IasLocalVideoOutStreamD2Ev
libias-media_transport-avb_streamhandler.so.0.0.1:_ZN20IasMediaTransportAvb23IasAvbStreamDiagnosticsC1ERKS0_
libias-media_transport-avb_streamhandler.so.0.0.1:_ZN20IasMediaTransportAvb23IasAvbStreamDiagnosticsC1ERKjS2_S2_S2_S2_S2_S2_S2_S2_S2_S2_S2_S2_S2_
libias-media_transport-avb_streamhandler.so.0.0.1:_ZN20IasMediaTransportAvb23IasAvbStreamDiagnosticsC1Ev
libias-media_transport-avb_streamhandler.so.0.0.1:_ZN20IasMediaTransportAvb23IasAvbStreamDiagnosticsC2ERKS0_
libias-media_transport-avb_streamhandler.so.0.0.1:_ZN20IasMediaTransportAvb23IasAvbStreamDiagnosticsC2ERKjS2_S2_S2_S2_S2_S2_S2_S2_S2_S2_S2_S2_S2_
libias-media_transport-avb_streamhandler.so.0.0.1:_ZN20IasMediaTransportAvb23IasAvbStreamDiagnosticsC2Ev
libias-media_transport-avb_streamhandler.so.0.0.1:_ZN20IasMediaTransportAvb23IasAvbStreamDiagnosticsaSERKS0_
libias-media_transport-avb_streamhandler.so.0.0.1:_ZN20IasMediaTransportAvb23IasAvbTransmitSequencer12updateShaperEv
libias-media_transport-avb_streamhandler.so.0.0.1:_ZN20IasMediaTransportAvb23IasAvbTransmitSequencer13serviceStreamEmRSt14_List_iteratorINS0_10StreamDataEE
libias-media_transport-avb_streamhandler.so.0.0.1:_ZN20IasMediaTransportAvb23IasAvbTransmitSequencer14reclaimPacketsEv
libias-media_transport-avb_streamhandler.so.0.0.1:_ZN20IasMediaTransportAvb23IasAvbTransmitSequencer14updateSequenceERSt14_List_iteratorINS0_10StreamDataEE
libias-media_transport-avb_streamhandler.so.0.0.1:_ZN20IasMediaTransportAvb23IasAvbTransmitSequencer15checkLinkStatusERb
libias-media_transport-avb_streamhandler.so.0.0.1:_ZN20IasMediaTransportAvb23IasAvbTransmitSequencer16sortByLaunchTimeERSt14_List_iteratorINS0_10StreamDataEE
libias-media_transport-avb_streamhandler.so.0.0.1:_ZN20IasMediaTransportAvb23IasAvbTransmitSequencer22registerEventInterfaceEPNS_33IasAvbStreamHandlerEventInterfaceE
libias-media_transport-avb_streamhandler.so.0.0.1:_ZN20IasMediaTransportAvb23IasAvbTransmitSequencer23addStreamToTransmitListEPNS_12IasAvbStreamE
libias-media_transport-avb_streamhandler.so.0.0.1:_ZN20IasMediaTransportAvb23IasAvbTransmitSequencer24unregisterEventInterfaceEPNS_33IasAvbStreamHandlerEventInterfaceE
libias-media_transport-avb_streamhandler.so.0.0.1:_ZN20IasMediaTransportAvb23IasAvbTransmitSequencer25resetPoolsOfActiveStreamsEv
libias-media_transport-avb_streamhandler.so.0.0.1:_ZN20IasMediaTransportAvb23IasAvbTransmitSequencer28removeStreamFromTransmitListEPNS_12IasAvbStreamE
libias-media_transport-avb_streamhandler.so.0.0.1:_ZN20IasMediaTransportAvb23IasAvbTransmitSequencer3runEv
libias-media_transport-avb_streamhandler.so.0.0.1:_ZN20IasMediaTransportAvb23IasAvbTransmitSequencer4DiagC1Ev
libias-media_transport-avb_streamhandler.so.0.0.1:_ZN20IasMediaTransportAvb23IasAvbTransmitSequencer4DiagC2Ev
libias-media_transport-avb_streamhandler.so.0.0.1:_ZN20IasMediaTransportAvb23IasAvbTransmitSequencer4initEjNS_13IasAvbSrClassEb
libias-media_transport-avb_streamhandler.so.0.0.1:_ZN20IasMediaTransportAvb23IasAvbTransmitSequencer4stopEv
libias-media_transport-avb_streamhandler.so.0.0.1:_ZN20IasMediaTransportAvb23IasAvbTransmitSequencer5startEv
libias-media_transport-avb_streamhandler.so.0.0.1:_ZN20IasMediaTransportAvb23IasAvbTransmitSequencer6ConfigC1Ev
libias-media_transport-avb_streamhandler.so.0.0.1:_ZN20IasMediaTransportAvb23IasAvbTransmitSequencer6ConfigC2Ev
libias-media_transport-avb_streamhandler.so.0.0.1:_ZN20IasMediaTransportAvb23IasAvbTransmitSequencer7cleanupEv
libias-media_transport-avb_streamhandler.so.0.0.1:_ZN20IasMediaTransportAvb23IasAvbTransmitSequencer8afterRunEv
libias-media_transport-avb_streamhandler.so.0.0.1:_ZN20IasMediaTransportAvb23IasAvbTransmitSequencer8shutDownEv
libias-media_transport-avb_streamhandler.so.0.0.1:_ZN20IasMediaTransportAvb23IasAvbTransmitSequencer9beforeRunEv
libias-media_transport-avb_streamhandler.so.0.0.1:_ZN20IasMediaTransportAvb23IasAvbTransmitSequencer9logOutputEff
libias-media_transport-avb_streamhandler.so.0.0.1:_ZN20IasMediaTransportAvb23IasAvbTransmitSequencerC1ER10DltContext
libias-media_transport-avb_streamhandler.so.0.0.1:_ZN20IasMediaTransportAvb23IasAvbTransmitSequencerC2ER10DltContext
libias-media_transport-avb_streamhandler.so.0.0.1:_ZN20IasMediaTransportAvb23IasAvbTransmitSequencerD0Ev
libias-media_transport-avb_streamhandler.so.0.0.1:_ZN20IasMediaTransportAvb23IasAvbTransmitSequencerD1Ev
libias-media_transport-avb_streamhandler.so.0.0.1:_ZN20IasMediaTransportAvb23IasAvbTransmitSequencerD2Ev
libias-media_transport-avb_streamhandler.so.0.0.1:_ZN20IasMediaTransportAvb23IasLocalAudioBufferDesc5peekXERNS0_15AudioBufferDescEj
libias-media_transport-avb_streamhandler.so.0.0.1:_ZN20IasMediaTransportAvb23IasLocalAudioBufferDesc7cleanupEv
libias-media_transport-avb_streamhandler.so.0.0.1:_ZN20IasMediaTransportAvb23IasLocalAudioBufferDesc7dequeueERNS0_15AudioBufferDescE
libias-media_transport-avb_streamhandler.so.0.0.1:_ZN20IasMediaTransportAvb23IasLocalAudioBufferDesc7enqueueERKNS0_15AudioBufferDescE
libias-media_transport-avb_streamhandler.so.0.0.1:_ZN20IasMediaTransportAvb23IasLocalAudioBufferDescC1Ej
libias-media_transport-avb_streamhandler.so.0.0.1:_ZN20IasMediaTransportAvb23IasLocalAudioBufferDescC2Ej
libias-media_transport-avb_streamhandler.so.0.0.1:_ZN20IasMediaTransportAvb23IasLocalAudioBufferDescD0Ev
libias-media_transport-avb_streamhandler.so.0.0.1:_ZN20IasMediaTransportAvb23IasLocalAudioBufferDescD1Ev
libias-media_transport-avb_streamhandler.so.0.0.1:_ZN20IasMediaTransportAvb23IasLocalAudioBufferDescD2Ev
libias-media_transport-avb_streamhandler.so.0.0.1:_ZN20IasMediaTransportAvb23IasVideoStreamInterface17createVideoStreamENS_21IasAvbStreamDirectionEttNS_17IasAvbVideoFormatENSt7__cxx1112basic_stringIcSt11char_traitsIcESaIcEEEt
libias-media_transport-avb_streamhandler.so.0.0.1:_ZN20IasMediaTransportAvb23IasVideoStreamInterface18destroyVideoStreamEt
libias-media_transport-avb_streamhandler.so.0.0.1:_ZN20IasMediaTransportAvb23IasVideoStreamInterface19createVideoInStreamEttNS_17IasAvbVideoFormatENSt7__cxx1112basic_stringIcSt11char_traitsIcESaIcEEEt
libias-media_transport-avb_streamhandler.so.0.0.1:_ZN20IasMediaTransportAvb23IasVideoStreamInterface19getLocalVideoStreamEt
libias-media_transport-avb_streamhandler.so.0.0.1:_ZN20IasMediaTransportAvb23IasVideoStreamInterface20createVideoOutStreamEttNS_17IasAvbVideoFormatENSt7__cxx1112basic_stringIcSt11char_traitsIcESaIcEEEt
libias-media_transport-avb_streamhandler.so.0.0.1:_ZN20IasMediaTransportAvb23IasVideoStreamInterface4initEv
libias-media_transport-avb_streamhandler.so.0.0.1:_ZN20IasMediaTransportAvb23IasVideoStreamInterface4stopEv
libias-media_transport-avb_streamhandler.so.0.0.1:_ZN20IasMediaTransportAvb23IasVideoStreamInterface5startEv
libias-media_transport-avb_streamhandler.so.0.0.1:_ZN20IasMediaTransportAvb23IasVideoStreamInterface7cleanupEv
libias-media_transport-avb_streamhandler.so.0.0.1:_ZN20IasMediaTransportAvb23IasVideoStreamInterfaceC1Ev
libias-media_transport-avb_streamhandler.so.0.0.1:_ZN20IasMediaTransportAvb23IasVideoStreamInterfaceC2Ev
libias-media_transport-avb_streamhandler.so.0.0.1:_ZN20IasMediaTransportAvb23IasVideoStreamInterfaceD0Ev
libias-media_transport-avb_streamhandler.so.0.0.1:_ZN20IasMediaTransportAvb23IasVideoStreamInterfaceD1Ev
libias-media_transport-avb_streamhandler.so.0.0.1:_ZN20IasMediaTransportAvb23IasVideoStreamInterfaceD2Ev
libias-media_transport-avb_streamhandler.so.0.0.1:_ZN20IasMediaTransportAvb24IasAvbVideoRingBufferShm11beginAccessENS_19IasRingBufferAccessEPjS2_
libias-media_transport-avb_streamhandler.so.0.0.1:_ZN20IasMediaTransportAvb24IasAvbVideoRingBufferShm15resetFromReaderEv
libias-media_transport-avb_streamhandler.so.0.0.1:_ZN20IasMediaTransportAvb24IasAvbVideoRingBufferShm15resetFromWriterEv
libias-media_transport-avb_streamhandler.so.0.0.1:_ZN20IasMediaTransportAvb24IasAvbVideoRingBufferShm15updateAvailableENS_19IasRingBufferAccessEPj
libias-media_transport-avb_streamhandler.so.0.0.1:_ZN20IasMediaTransportAvb24IasAvbVideoRingBufferShm4initEjjPvb
libias-media_transport-avb_streamhandler.so.0.0.1:_ZN20IasMediaTransportAvb24IasAvbVideoRingBufferShm7zeroOutEv
libias-media_transport-avb_streamhandler.so.0.0.1:_ZN20IasMediaTransportAvb24IasAvbVideoRingBufferShm8waitReadEjj
libias-media_transport-avb_streamhandler.so.0.0.1:_ZN20IasMediaTransportAvb24IasAvbVideoRingBufferShm9endAccessENS_19IasRingBufferAccessEjj
libias-media_transport-avb_streamhandler.so.0.0.1:_ZN20IasMediaTransportAvb24IasAvbVideoRingBufferShm9waitWriteEjj
libias-media_transport-avb_streamhandler.so.0.0.1:_ZN20IasMediaTransportAvb24IasAvbVideoRingBufferShmC1Ev
libias-media_transport-avb_streamhandler.so.0.0.1:_ZN20IasMediaTransportAvb24IasAvbVideoRingBufferShmC2Ev
libias-media_transport-avb_streamhandler.so.0.0.1:_ZN20IasMediaTransportAvb24IasAvbVideoRingBufferShmD1Ev
libias-media_transport-avb_streamhandler.so.0.0.1:_ZN20IasMediaTransportAvb24IasAvbVideoRingBufferShmD2Ev
libias-media_transport-avb_streamhandler.so.0.0.1:_ZN20IasMediaTransportAvb24IasAvbVideoShmConnection14findRingBufferEv
libias-media_transport-avb_streamhandler.so.0.0.1:_ZN20IasMediaTransportAvb24IasAvbVideoShmConnection16createRingBufferEjj
libias-media_transport-avb_streamhandler.so.0.0.1:_ZN20IasMediaTransportAvb24IasAvbVideoShmConnection4initERKNSt7__cxx1112basic_stringIcSt11char_traitsIcESaIcEEES8_
libias-media_transport-avb_streamhandler.so.0.0.1:_ZN20IasMediaTransportAvb24IasAvbVideoShmConnection7cleanupEv
libias-media_transport-avb_streamhandler.so.0.0.1:_ZN20IasMediaTransportAvb24IasAvbVideoShmConnectionC1Eb
libias-media_transport-avb_streamhandler.so.0.0.1:_ZN20IasMediaTransportAvb24IasAvbVideoShmConnectionC2Eb
libias-media_transport-avb_streamhandler.so.0.0.1:_ZN20IasMediaTransportAvb24IasAvbVideoShmConnectionD1Ev
libias-media_transport-avb_streamhandler.so.0.0.1:_ZN20IasMediaTransportAvb24IasAvbVideoShmConnectionD2Ev
libias-media_transport-avb_streamhandler.so.0.0.1:_ZN20IasMediaTransportAvb25IasAvbRxStreamClockDomain10invalidateEv
libias-media_transport-avb_streamhandler.so.0.0.1:_ZN20IasMediaTransportAvb25IasAvbRxStreamClockDomain17initLastTimeStampEj
libias-media_transport-avb_streamhandler.so.0.0.1:_ZN20IasMediaTransportAvb25IasAvbRxStreamClockDomain5resetENS_13IasAvbSrClassEjj
libias-media_transport-avb_streamhandler.so.0.0.1:_ZN20IasMediaTransportAvb25IasAvbRxStreamClockDomain5resetENS_13IasAvbSrClassEmj
libias-media_transport-avb_streamhandler.so.0.0.1:_ZN20IasMediaTransportAvb25IasAvbRxStreamClockDomain6updateEmjjj
libias-media_transport-avb_streamhandler.so.0.0.1:_ZN20IasMediaTransportAvb25IasAvbRxStreamClockDomain6updateEmmjm
libias-media_transport-avb_streamhandler.so.0.0.1:_ZN20IasMediaTransportAvb25IasAvbRxStreamClockDomainC1Ev
libias-media_transport-avb_streamhandler.so.0.0.1:_ZN20IasMediaTransportAvb25IasAvbRxStreamClockDomainC2Ev
libias-media_transport-avb_streamhandler.so.0.0.1:_ZN20IasMediaTransportAvb25IasAvbRxStreamClockDomainD0Ev
libias-media_transport-avb_streamhandler.so.0.0.1:_ZN20IasMediaTransportAvb25IasAvbRxStreamClockDomainD1Ev
libias-media_transport-avb_streamhandler.so.0.0.1:_ZN20IasMediaTransportAvb25IasAvbRxStreamClockDomainD2Ev
libias-media_transport-avb_streamhandler.so.0.0.1:_ZN20IasMediaTransportAvb26IasAlsaHandlerWorkerThread14transferFramesEPKN8IasAudio12IasAudioAreaEjjS4_jjNS1_24IasAudioCommonDataFormatEjfNS1_13IasDeviceTypeEPjS7_
libias-media_transport-avb_streamhandler.so.0.0.1:_ZN20IasMediaTransportAvb26IasAlsaHandlerWorkerThread18bufferAdjustFramesEPN8IasAudio18IasAudioRingBufferENS1_19IasRingBufferAccessENS1_24IasAudioCommonDataFormatEjj
libias-media_transport-avb_streamhandler.so.0.0.1:_ZN20IasMediaTransportAvb26IasAlsaHandlerWorkerThread3runEv
libias-media_transport-avb_streamhandler.so.0.0.1:_ZN20IasMediaTransportAvb26IasAlsaHandlerWorkerThread4initEN8IasAudio13IasDeviceTypeEj
libias-media_transport-avb_streamhandler.so.0.0.1:_ZN20IasMediaTransportAvb26IasAlsaHandlerWorkerThread4stopEv
libias-media_transport-avb_streamhandler.so.0.0.1:_ZN20IasMediaTransportAvb26IasAlsaHandlerWorkerThread5resetEv
libias-media_transport-avb_streamhandler.so.0.0.1:_ZN20IasMediaTransportAvb26IasAlsaHandlerWorkerThread5startEv
libias-media_transport-avb_streamhandler.so.0.0.1:_ZN20IasMediaTransportAvb26IasAlsaHandlerWorkerThread8afterRunEv
libias-media_transport-avb_streamhandler.so.0.0.1:_ZN20IasMediaTransportAvb26IasAlsaHandlerWorkerThread8shutDownEv
libias-media_transport-avb_streamhandler.so.0.0.1:_ZN20IasMediaTransportAvb26IasAlsaHandlerWorkerThread9beforeRunEv
libias-media_transport-avb_streamhandler.so.0.0.1:_ZN20IasMediaTransportAvb26IasAlsaHandlerWorkerThreadC1ESt10shared_ptrINS0_32IasAlsaHandlerWorkerThreadParamsEE
libias-media_transport-avb_streamhandler.so.0.0.1:_ZN20IasMediaTransportAvb26IasAlsaHandlerWorkerThreadC2ESt10shared_ptrINS0_32IasAlsaHandlerWorkerThreadParamsEE
libias-media_transport-avb_streamhandler.so.0.0.1:_ZN20IasMediaTransportAvb26IasAlsaHandlerWorkerThreadD0Ev
libias-media_transport-avb_streamhandler.so.0.0.1:_ZN20IasMediaTransportAvb26IasAlsaHandlerWorkerThreadD1Ev
libias-media_transport-avb_streamhandler.so.0.0.1:_ZN20IasMediaTransportAvb26IasAlsaHandlerWorkerThreadD2Ev
libias-media_transport-avb_streamhandler.so.0.0.1:_ZN20IasMediaTransportAvb26IasAlsaVirtualDeviceStream12resetBuffersEv
libias-media_transport-avb_streamhandler.so.0.0.1:_ZN20IasMediaTransportAvb26IasAlsaVirtualDeviceStream18updateBufferStatusEv
libias-media_transport-avb_streamhandler.so.0.0.1:_ZN20IasMediaTransportAvb26IasAlsaVirtualDeviceStream21writeLocalAudioBufferEtPsjRtj
libias-media_transport-avb_streamhandler.so.0.0.1:_ZN20IasMediaTransportAvb26IasAlsaVirtualDeviceStream4initEtjjjjjNS_17IasAvbAudioFormatEhbNSt7__cxx1112basic_stringIcSt11char_traitsIcESaIcEEENS_18IasAlsaDeviceTypesE
libias-media_transport-avb_streamhandler.so.0.0.1:_ZN20IasMediaTransportAvb26IasAlsaVirtualDeviceStream7cleanupEv
libias-media_transport-avb_streamhandler.so.0.0.1:_ZN20IasMediaTransportAvb26IasAlsaVirtualDeviceStreamC1ER10DltContextNS_21IasAvbStreamDirectionEt
libias-media_transport-avb_streamhandler.so.0.0.1:_ZN20IasMediaTransportAvb26IasAlsaVirtualDeviceStreamC2ER10DltContextNS_21IasAvbStreamDirectionEt
libias-media_transport-avb_streamhandler.so.0.0.1:_ZN20IasMediaTransportAvb26IasAlsaVirtualDeviceStreamD0Ev
libias-media_transport-avb_streamhandler.so.0.0.1:_ZN20IasMediaTransportAvb26IasAlsaVirtualDeviceStreamD1Ev
libias-media_transport-avb_streamhandler.so.0.0.1:_ZN20IasMediaTransportAvb26IasAlsaVirtualDeviceStreamD2Ev
libias-media_transport-avb_streamhandler.so.0.0.1:_ZN20IasMediaTransportAvb26IasAvbClockReferenceStream10initFormatEv
libias-media_transport-avb_streamhandler.so.0.0.1:_ZN20IasMediaTransportAvb26IasAvbClockReferenceStream11initReceiveENS_13IasAvbSrClassENS_30IasAvbClockReferenceStreamTypeEtRKNS_14IasAvbStreamIdERA6_Kh
libias-media_transport-avb_streamhandler.so.0.0.1:_ZN20IasMediaTransportAvb26IasAvbClockReferenceStream12initTransmitENS_13IasAvbSrClassENS_30IasAvbClockReferenceStreamTypeEttjNS_21IasAvbClockMultiplierERKNS_14IasAvbStreamIdEjPNS_17IasAvbClockDomainERA6_Kh
libias-media_transport-avb_streamhandler.so.0.0.1:_ZN20IasMediaTransportAvb26IasAvbClockReferenceStream14derivedCleanupEv
libias-media_transport-avb_streamhandler.so.0.0.1:_ZN20IasMediaTransportAvb26IasAvbClockReferenceStream16writeToAvbPacketEPNS_12IasAvbPacketEm
libias-media_transport-avb_streamhandler.so.0.0.1:_ZN20IasMediaTransportAvb26IasAvbClockReferenceStream17activationChangedEv
libias-media_transport-avb_streamhandler.so.0.0.1:_ZN20IasMediaTransportAvb26IasAvbClockReferenceStream17decodeNominalFreqEh
libias-media_transport-avb_streamhandler.so.0.0.1:_ZN20IasMediaTransportAvb26IasAvbClockReferenceStream17prepareAllPacketsEv
libias-media_transport-avb_streamhandler.so.0.0.1:_ZN20IasMediaTransportAvb26IasAvbClockReferenceStream17readFromAvbPacketEPKvm
libias-media_transport-avb_streamhandler.so.0.0.1:_ZN20IasMediaTransportAvb26IasAvbClockReferenceStream20getCompatibilityModeEv
libias-media_transport-avb_streamhandler.so.0.0.1:_ZN20IasMediaTransportAvb26IasAvbClockReferenceStream9resetTimeEm
libias-media_transport-avb_streamhandler.so.0.0.1:_ZN20IasMediaTransportAvb26IasAvbClockReferenceStreamC1Ev
libias-media_transport-avb_streamhandler.so.0.0.1:_ZN20IasMediaTransportAvb26IasAvbClockReferenceStreamC2Ev
libias-media_transport-avb_streamhandler.so.0.0.1:_ZN20IasMediaTransportAvb26IasAvbClockReferenceStreamD0Ev
libias-media_transport-avb_streamhandler.so.0.0.1:_ZN20IasMediaTransportAvb26IasAvbClockReferenceStreamD1Ev
libias-media_transport-avb_streamhandler.so.0.0.1:_ZN20IasMediaTransportAvb26IasAvbClockReferenceStreamD2Ev
libias-media_transport-avb_streamhandler.so.0.0.1:_ZN20IasMediaTransportAvb26IasAvbHwCaptureClockDomain3runEv
libias-media_transport-avb_streamhandler.so.0.0.1:_ZN20IasMediaTransportAvb26IasAvbHwCaptureClockDomain4initEv
libias-media_transport-avb_streamhandler.so.0.0.1:_ZN20IasMediaTransportAvb26IasAvbHwCaptureClockDomain4stopEv
libias-media_transport-avb_streamhandler.so.0.0.1:_ZN20IasMediaTransportAvb26IasAvbHwCaptureClockDomain5startEv
libias-media_transport-avb_streamhandler.so.0.0.1:_ZN20IasMediaTransportAvb26IasAvbHwCaptureClockDomain7cleanupEv
libias-media_transport-avb_streamhandler.so.0.0.1:_ZN20IasMediaTransportAvb26IasAvbHwCaptureClockDomain8afterRunEv
libias-media_transport-avb_streamhandler.so.0.0.1:_ZN20IasMediaTransportAvb26IasAvbHwCaptureClockDomain8shutDownEv
libias-media_transport-avb_streamhandler.so.0.0.1:_ZN20IasMediaTransportAvb26IasAvbHwCaptureClockDomain9beforeRunEv
libias-media_transport-avb_streamhandler.so.0.0.1:_ZN20IasMediaTransportAvb26IasAvbHwCaptureClockDomainC1Ev
libias-media_transport-avb_streamhandler.so.0.0.1:_ZN20IasMediaTransportAvb26IasAvbHwCaptureClockDomainC2Ev
libias-media_transport-avb_streamhandler.so.0.0.1:_ZN20IasMediaTransportAvb26IasAvbHwCaptureClockDomainD0Ev
libias-media_transport-avb_streamhandler.so.0.0.1:_ZN20IasMediaTransportAvb26IasAvbHwCaptureClockDomainD1Ev
libias-media_transport-avb_streamhandler.so.0.0.1:_ZN20IasMediaTransportAvb26IasAvbHwCaptureClockDomainD2Ev
libias-media_transport-avb_streamhandler.so.0.0.1:_ZN20IasMediaTransportAvb27IasAvbAudioStreamAttributesC1ERKNS_21IasAvbStreamDirectionERKtS5_RKjRKNS_17IasAvbAudioFormatES7_RKNS_18IasAvbIdAssignModeERKmSF_SF_RKbRKNS_17IasAvbStreamStateES5_SH_RKNS_23IasAvbStreamDiagnosticsE
libias-media_transport-avb_streamhandler.so.0.0.1:_ZN20IasMediaTransportAvb27IasAvbAudioStreamAttributesC1ERKS0_
libias-media_transport-avb_streamhandler.so.0.0.1:_ZN20IasMediaTransportAvb27IasAvbAudioStreamAttributesC1Ev
libias-media_transport-avb_streamhandler.so.0.0.1:_ZN20IasMediaTransportAvb27IasAvbAudioStreamAttributesC2ERKNS_21IasAvbStreamDirectionERKtS5_RKjRKNS_17IasAvbAudioFormatES7_RKNS_18IasAvbIdAssignModeERKmSF_SF_RKbRKNS_17IasAvbStreamStateES5_SH_RKNS_23IasAvbStreamDiagnosticsE
libias-media_transport-avb_streamhandler.so.0.0.1:_ZN20IasMediaTransportAvb27IasAvbAudioStreamAttributesC2ERKS0_
libias-media_transport-avb_streamhandler.so.0.0.1:_ZN20IasMediaTransportAvb27IasAvbAudioStreamAttributesC2Ev
libias-media_transport-avb_streamhandler.so.0.0.1:_ZN20IasMediaTransportAvb27IasAvbAudioStreamAttributesaSERKS0_
libias-media_transport-avb_streamhandler.so.0.0.1:_ZN20IasMediaTransportAvb27IasAvbVideoStreamAttributesC1ERKNS_21IasAvbStreamDirectionERKtS5_RKNS_17IasAvbVideoFormatERKjRKNS_18IasAvbIdAssignModeERKmSF_SF_RKbRKNS_17IasAvbStreamStateES5_SH_RKNS_23IasAvbStreamDiagnosticsE
libias-media_transport-avb_streamhandler.so.0.0.1:_ZN20IasMediaTransportAvb27IasAvbVideoStreamAttributesC1ERKS0_
libias-media_transport-avb_streamhandler.so.0.0.1:_ZN20IasMediaTransportAvb27IasAvbVideoStreamAttributesC1Ev
libias-media_transport-avb_streamhandler.so.0.0.1:_ZN20IasMediaTransportAvb27IasAvbVideoStreamAttributesC2ERKNS_21IasAvbStreamDirectionERKtS5_RKNS_17IasAvbVideoFormatERKjRKNS_18IasAvbIdAssignModeERKmSF_SF_RKbRKNS_17IasAvbStreamStateES5_SH_RKNS_23IasAvbStreamDiagnosticsE
libias-media_transport-avb_streamhandler.so.0.0.1:_ZN20IasMediaTransportAvb27IasAvbVideoStreamAttributesC2ERKS0_
libias-media_transport-avb_streamhandler.so.0.0.1:_ZN20IasMediaTransportAvb27IasAvbVideoStreamAttributesC2Ev
libias-media_transport-avb_streamhandler.so.0.0.1:_ZN20IasMediaTransportAvb27IasAvbVideoStreamAttributesaSERKS0_
libias-media_transport-avb_streamhandler.so.0.0.1:_ZN20IasMediaTransportAvb28IasAvbVideoRingBufferFactory11getInstanceEv
libias-media_transport-avb_streamhandler.so.0.0.1:_ZN20IasMediaTransportAvb28IasAvbVideoRingBufferFactory14findRingBufferENSt7__cxx1112basic_stringIcSt11char_traitsIcESaIcEEE
libias-media_transport-avb_streamhandler.so.0.0.1:_ZN20IasMediaTransportAvb28IasAvbVideoRingBufferFactory14loseRingBufferEPNS_21IasAvbVideoRingBufferE
libias-media_transport-avb_streamhandler.so.0.0.1:_ZN20IasMediaTransportAvb28IasAvbVideoRingBufferFactory16createRingBufferEPPNS_21IasAvbVideoRingBufferEjjNSt7__cxx1112basic_stringIcSt11char_traitsIcESaIcEEES9_
libias-media_transport-avb_streamhandler.so.0.0.1:_ZN20IasMediaTransportAvb28IasAvbVideoRingBufferFactory17destroyRingBufferEPNS_21IasAvbVideoRingBufferE
libias-media_transport-avb_streamhandler.so.0.0.1:_ZN20IasMediaTransportAvb28IasAvbVideoRingBufferFactoryC1Ev
libias-media_transport-avb_streamhandler.so.0.0.1:_ZN20IasMediaTransportAvb28IasAvbVideoRingBufferFactoryC2Ev
libias-media_transport-avb_streamhandler.so.0.0.1:_ZN20IasMediaTransportAvb28IasAvbVideoRingBufferFactoryD1Ev
libias-media_transport-avb_streamhandler.so.0.0.1:_ZN20IasMediaTransportAvb28IasAvbVideoRingBufferFactoryD2Ev
libias-media_transport-avb_streamhandler.so.0.0.1:_ZN20IasMediaTransportAvb29IasLocalAudioStreamAttributesC1ENS_21IasAvbStreamDirectionEtjNS_17IasAvbAudioFormatEjjhbNSt7__cxx1112basic_stringIcSt11char_traitsIcESaIcEEEtbNS_30IasLocalAudioStreamDiagnosticsE
libias-media_transport-avb_streamhandler.so.0.0.1:_ZN20IasMediaTransportAvb29IasLocalAudioStreamAttributesC1ERKS0_
libias-media_transport-avb_streamhandler.so.0.0.1:_ZN20IasMediaTransportAvb29IasLocalAudioStreamAttributesC1Ev
libias-media_transport-avb_streamhandler.so.0.0.1:_ZN20IasMediaTransportAvb29IasLocalAudioStreamAttributesC2ENS_21IasAvbStreamDirectionEtjNS_17IasAvbAudioFormatEjjhbNSt7__cxx1112basic_stringIcSt11char_traitsIcESaIcEEEtbNS_30IasLocalAudioStreamDiagnosticsE
libias-media_transport-avb_streamhandler.so.0.0.1:_ZN20IasMediaTransportAvb29IasLocalAudioStreamAttributesC2ERKS0_
libias-media_transport-avb_streamhandler.so.0.0.1:_ZN20IasMediaTransportAvb29IasLocalAudioStreamAttributesC2Ev
libias-media_transport-avb_streamhandler.so.0.0.1:_ZN20IasMediaTransportAvb29IasLocalAudioStreamAttributesaSERKS0_
libias-media_transport-avb_streamhandler.so.0.0.1:_ZN20IasMediaTransportAvb29IasLocalVideoStreamAttributesC1ENS_21IasAvbStreamDirectionENS_18IasLocalStreamTypeEtNS_17IasAvbVideoFormatEttb
libias-media_transport-avb_streamhandler.so.0.0.1:_ZN20IasMediaTransportAvb29IasLocalVideoStreamAttributesC1ERKS0_
libias-media_transport-avb_streamhandler.so.0.0.1:_ZN20IasMediaTransportAvb29IasLocalVideoStreamAttributesC1Ev
libias-media_transport-avb_streamhandler.so.0.0.1:_ZN20IasMediaTransportAvb29IasLocalVideoStreamAttributesC2ENS_21IasAvbStreamDirectionENS_18IasLocalStreamTypeEtNS_17IasAvbVideoFormatEttb
libias-media_transport-avb_streamhandler.so.0.0.1:_ZN20IasMediaTransportAvb29IasLocalVideoStreamAttributesC2ERKS0_
libias-media_transport-avb_streamhandler.so.0.0.1:_ZN20IasMediaTransportAvb29IasLocalVideoStreamAttributesC2Ev
libias-media_transport-avb_streamhandler.so.0.0.1:_ZN20IasMediaTransportAvb29IasLocalVideoStreamAttributesaSERKS0_
libias-media_transport-avb_streamhandler.so.0.0.1:_ZN20IasMediaTransportAvb30IasAvbStreamHandlerEnvironment13getDltContextERKNSt7__cxx1112basic_stringIcSt11char_traitsIcESaIcEEE
libias-media_transport-avb_streamhandler.so.0.0.1:_ZN20IasMediaTransportAvb30IasAvbStreamHandlerEnvironment13openRawSocketEv
libias-media_transport-avb_streamhandler.so.0.0.1:_ZN20IasMediaTransportAvb30IasAvbStreamHandlerEnvironment13setTxRingSizeEv
libias-media_transport-avb_streamhandler.so.0.0.1:_ZN20IasMediaTransportAvb30IasAvbStreamHandlerEnvironment14createMrpProxyEv
libias-media_transport-avb_streamhandler.so.0.0.1:_ZN20IasMediaTransportAvb30IasAvbStreamHandlerEnvironment14createPtpProxyEv
libias-media_transport-avb_streamhandler.so.0.0.1:_ZN20IasMediaTransportAvb30IasAvbStreamHandlerEnvironment14createWatchdogEv
libias-media_transport-avb_streamhandler.so.0.0.1:_ZN20IasMediaTransportAvb30IasAvbStreamHandlerEnvironment14getConfigValueERKNSt7__cxx1112basic_stringIcSt11char_traitsIcESaIcEEERS6_
libias-media_transport-avb_streamhandler.so.0.0.1:_ZN20IasMediaTransportAvb30IasAvbStreamHandlerEnvironment14queryLinkSpeedEv
libias-media_transport-avb_streamhandler.so.0.0.1:_ZN20IasMediaTransportAvb30IasAvbStreamHandlerEnvironment14queryLinkStateEv
libias-media_transport-avb_streamhandler.so.0.0.1:_ZN20IasMediaTransportAvb30IasAvbStreamHandlerEnvironment14querySourceMacEv
libias-media_transport-avb_streamhandler.so.0.0.1:_ZN20IasMediaTransportAvb30IasAvbStreamHandlerEnvironment14setConfigValueERKNSt7__cxx1112basic_stringIcSt11char_traitsIcESaIcEEES8_
libias-media_transport-avb_streamhandler.so.0.0.1:_ZN20IasMediaTransportAvb30IasAvbStreamHandlerEnvironment14setConfigValueERKNSt7__cxx1112basic_stringIcSt11char_traitsIcESaIcEEEm
libias-media_transport-avb_streamhandler.so.0.0.1:_ZN20IasMediaTransportAvb30IasAvbStreamHandlerEnvironment15createDiaLoggerEv
libias-media_transport-avb_streamhandler.so.0.0.1:_ZN20IasMediaTransportAvb30IasAvbStreamHandlerEnvironment15createIgbDeviceEv
libias-media_transport-avb_streamhandler.so.0.0.1:_ZN20IasMediaTransportAvb30IasAvbStreamHandlerEnvironment15destroyWatchdogEv
libias-media_transport-avb_streamhandler.so.0.0.1:_ZN20IasMediaTransportAvb30IasAvbStreamHandlerEnvironment15loadClockDriverERKNSt7__cxx1112basic_stringIcSt11char_traitsIcESaIcEEE
libias-media_transport-avb_streamhandler.so.0.0.1:_ZN20IasMediaTransportAvb30IasAvbStreamHandlerEnvironment16doGetConfigValueERKNSt7__cxx1112basic_stringIcSt11char_traitsIcESaIcEEERm
libias-media_transport-avb_streamhandler.so.0.0.1:_ZN20IasMediaTransportAvb30IasAvbStreamHandlerEnvironment17emergencyShutdownEv
libias-media_transport-avb_streamhandler.so.0.0.1:_ZN20IasMediaTransportAvb30IasAvbStreamHandlerEnvironment19registerDltContextsEv
libias-media_transport-avb_streamhandler.so.0.0.1:_ZN20IasMediaTransportAvb30IasAvbStreamHandlerEnvironment21notifySchedulingIssueER10DltContextRKNSt7__cxx1112basic_stringIcSt11char_traitsIcESaIcEEEmm
libias-media_transport-avb_streamhandler.so.0.0.1:_ZN20IasMediaTransportAvb30IasAvbStreamHandlerEnvironment21unregisterDltContextsEv
libias-media_transport-avb_streamhandler.so.0.0.1:_ZN20IasMediaTransportAvb30IasAvbStreamHandlerEnvironment22setDefaultConfigValuesEv
libias-media_transport-avb_streamhandler.so.0.0.1:_ZN20IasMediaTransportAvb30IasAvbStreamHandlerEnvironment23validateRegistryEntriesEv
libias-media_transport-avb_streamhandler.so.0.0.1:_ZN20IasMediaTransportAvb30IasAvbStreamHandlerEnvironmentC1E15DltLogLevelType
libias-media_transport-avb_streamhandler.so.0.0.1:_ZN20IasMediaTransportAvb30IasAvbStreamHandlerEnvironmentC2E15DltLogLevelType
libias-media_transport-avb_streamhandler.so.0.0.1:_ZN20IasMediaTransportAvb30IasAvbStreamHandlerEnvironmentD0Ev
libias-media_transport-avb_streamhandler.so.0.0.1:_ZN20IasMediaTransportAvb30IasAvbStreamHandlerEnvironmentD1Ev
libias-media_transport-avb_streamhandler.so.0.0.1:_ZN20IasMediaTransportAvb30IasAvbStreamHandlerEnvironmentD2Ev
libias-media_transport-avb_streamhandler.so.0.0.1:_ZN20IasMediaTransportAvb30IasLocalAudioStreamDiagnosticsC1ERKS0_
libias-media_transport-avb_streamhandler.so.0.0.1:_ZN20IasMediaTransportAvb30IasLocalAudioStreamDiagnosticsC1Ejjjjjjjjj
libias-media_transport-avb_streamhandler.so.0.0.1:_ZN20IasMediaTransportAvb30IasLocalAudioStreamDiagnosticsC1Ev
libias-media_transport-avb_streamhandler.so.0.0.1:_ZN20IasMediaTransportAvb30IasLocalAudioStreamDiagnosticsC2ERKS0_
libias-media_transport-avb_streamhandler.so.0.0.1:_ZN20IasMediaTransportAvb30IasLocalAudioStreamDiagnosticsC2Ejjjjjjjjj
libias-media_transport-avb_streamhandler.so.0.0.1:_ZN20IasMediaTransportAvb30IasLocalAudioStreamDiagnosticsC2Ev
libias-media_transport-avb_streamhandler.so.0.0.1:_ZN20IasMediaTransportAvb30IasLocalAudioStreamDiagnosticsaSERKS0_
libias-media_transport-avb_streamhandler.so.0.0.1:_ZN20IasMediaTransportAvb36IasAvbClockReferenceStreamAttributesC1ERKNS_21IasAvbStreamDirectionERKNS_30IasAvbClockReferenceStreamTypeERKtS8_RKjRKNS_21IasAvbClockMultiplierESA_RKNS_18IasAvbIdAssignModeERKmSI_SI_RKbRKNS_17IasAvbStreamStateESK_RKNS_23IasAvbStreamDiagnosticsE
libias-media_transport-avb_streamhandler.so.0.0.1:_ZN20IasMediaTransportAvb36IasAvbClockReferenceStreamAttributesC1ERKS0_
libias-media_transport-avb_streamhandler.so.0.0.1:_ZN20IasMediaTransportAvb36IasAvbClockReferenceStreamAttributesC1Ev
libias-media_transport-avb_streamhandler.so.0.0.1:_ZN20IasMediaTransportAvb36IasAvbClockReferenceStreamAttributesC2ERKNS_21IasAvbStreamDirectionERKNS_30IasAvbClockReferenceStreamTypeERKtS8_RKjRKNS_21IasAvbClockMultiplierESA_RKNS_18IasAvbIdAssignModeERKmSI_SI_RKbRKNS_17IasAvbStreamStateESK_RKNS_23IasAvbStreamDiagnosticsE
libias-media_transport-avb_streamhandler.so.0.0.1:_ZN20IasMediaTransportAvb36IasAvbClockReferenceStreamAttributesC2ERKS0_
libias-media_transport-avb_streamhandler.so.0.0.1:_ZN20IasMediaTransportAvb36IasAvbClockReferenceStreamAttributesC2Ev
libias-media_transport-avb_streamhandler.so.0.0.1:_ZN20IasMediaTransportAvb36IasAvbClockReferenceStreamAttributesaSERKS0_
libias-media_transport-avb_streamhandler.so.0.0.1:_ZN20IasMediaTransportAvb8toStringB5cxx11ERKNS_22IasAlsaHwDeviceHandler9IasResultE
libias-media_transport-avb_streamhandler.so.0.0.1:_ZN20IasMediaTransportAvb8toStringB5cxx11ERKNS_26IasAlsaHandlerWorkerThread9IasResultE
libias-media_transport-avb_streamhandler.so.0.0.1:_ZN20IasMediaTransportAvb9IasSignal4waitEv
libias-media_transport-avb_streamhandler.so.0.0.1:_ZN20IasMediaTransportAvb9IasSignal6signalEv
libias-media_transport-avb_streamhandler.so.0.0.1:_ZN20IasMediaTransportAvb9IasSignalC1Ev
libias-media_transport-avb_streamhandler.so.0.0.1:_ZN20IasMediaTransportAvb9IasSignalC2Ev
libias-media_transport-avb_streamhandler.so.0.0.1:_ZN20IasMediaTransportAvb9IasSignalD0Ev
libias-media_transport-avb_streamhandler.so.0.0.1:_ZN20IasMediaTransportAvb9IasSignalD1Ev
libias-media_transport-avb_streamhandler.so.0.0.1:_ZN20IasMediaTransportAvb9IasSignalD2Ev
libias-media_transport-avb_streamhandler.so.0.0.1:_ZN20IasMediaTransportAvb9IasThread13getThreadNameEmRNSt7__cxx1112basic_stringIcSt11char_traitsIcESaIcEEE
libias-media_transport-avb_streamhandler.so.0.0.1:_ZN20IasMediaTransportAvb9IasThread13setThreadNameEmRKNSt7__cxx1112basic_stringIcSt11char_traitsIcESaIcEEE
libias-media_transport-avb_streamhandler.so.0.0.1:_ZN20IasMediaTransportAvb9IasThread13setThreadNameEv
libias-media_transport-avb_streamhandler.so.0.0.1:_ZN20IasMediaTransportAvb9IasThread23getSchedulingParametersERNS0_25IasThreadSchedulingPolicyERi
libias-media_transport-avb_streamhandler.so.0.0.1:_ZN20IasMediaTransportAvb9IasThread23getSchedulingParametersEmRNS0_25IasThreadSchedulingPolicyERi
libias-media_transport-avb_streamhandler.so.0.0.1:_ZN20IasMediaTransportAvb9IasThread23setSchedulingParametersENS0_25IasThreadSchedulingPolicyEi
libias-media_transport-avb_streamhandler.so.0.0.1:_ZN20IasMediaTransportAvb9IasThread23setSchedulingParametersEmNS0_25IasThreadSchedulingPolicyEi
libias-media_transport-avb_streamhandler.so.0.0.1:_ZN20IasMediaTransportAvb9IasThread26commitSchedulingParametersEmii
libias-media_transport-avb_streamhandler.so.0.0.1:_ZN20IasMediaTransportAvb9IasThread27processSchedulingParametersENS0_25IasThreadSchedulingPolicyERiS2_
libias-media_transport-avb_streamhandler.so.0.0.1:_ZN20IasMediaTransportAvb9IasThread3runEPv
libias-media_transport-avb_streamhandler.so.0.0.1:_ZN20IasMediaTransportAvb9IasThread3runEv
libias-media_transport-avb_streamhandler.so.0.0.1:_ZN20IasMediaTransportAvb9IasThread4stopEv
libias-media_transport-avb_streamhandler.so.0.0.1:_ZN20IasMediaTransportAvb9IasThread5startEbPNS_12IasIRunnableE
libias-media_transport-avb_streamhandler.so.0.0.1:_ZN20IasMediaTransportAvb9IasThread6signalEi
libias-media_transport-avb_streamhandler.so.0.0.1:_ZN20IasMediaTransportAvb9IasThread6signalEmi
libias-media_transport-avb_streamhandler.so.0.0.1:_ZN20IasMediaTransportAvb9IasThreadC1EPNS_12IasIRunnableERKNSt7__cxx1112basic_stringIcSt11char_traitsIcESaIcEEEm
libias-media_transport-avb_streamhandler.so.0.0.1:_ZN20IasMediaTransportAvb9IasThreadC2EPNS_12IasIRunnableERKNSt7__cxx1112basic_stringIcSt11char_traitsIcESaIcEEEm
libias-media_transport-avb_streamhandler.so.0.0.1:_ZN20IasMediaTransportAvb9IasThreadD0Ev
libias-media_transport-avb_streamhandler.so.0.0.1:_ZN20IasMediaTransportAvb9IasThreadD1Ev
libias-media_transport-avb_streamhandler.so.0.0.1:_ZN20IasMediaTransportAvb9IasThreadD2Ev
libias-media_transport-avb_streamhandler.so.0.0.1:_ZNK20IasMediaTransportAvb10PacketH264eqERKS0_
libias-media_transport-avb_streamhandler.so.0.0.1:_ZNK20IasMediaTransportAvb10PacketH264neERKS0_
libias-media_transport-avb_streamhandler.so.0.0.1:_ZNK20IasMediaTransportAvb12IasAvbStream15resetPacketPoolEv
libias-media_transport-avb_streamhandler.so.0.0.1:_ZNK20IasMediaTransportAvb12PacketMpegTSeqERKS0_
libias-media_transport-avb_streamhandler.so.0.0.1:_ZNK20IasMediaTransportAvb12PacketMpegTSneERKS0_
libias-media_transport-avb_streamhandler.so.0.0.1:_ZNK20IasMediaTransportAvb13IasAlsaEngine18getLocalStreamInfoERKtRSt6vectorINS_29IasLocalAudioStreamAttributesESaIS4_EE
libias-media_transport-avb_streamhandler.so.0.0.1:_ZNK20IasMediaTransportAvb14IasAvbStreamId20copyStreamIdToBufferEPhm
libias-media_transport-avb_streamhandler.so.0.0.1:_ZNK20IasMediaTransportAvb15IasLibPtpDaemon27triggerStorePersistenceDataEv
libias-media_transport-avb_streamhandler.so.0.0.1:_ZNK20IasMediaTransportAvb15IasLibPtpDaemon8ptpToSysEm
libias-media_transport-avb_streamhandler.so.0.0.1:_ZNK20IasMediaTransportAvb15IasLibPtpDaemon8rawToPtpEm
libias-media_transport-avb_streamhandler.so.0.0.1:_ZNK20IasMediaTransportAvb15IasLibPtpDaemon8sysToPtpEm
libias-media_transport-avb_streamhandler.so.0.0.1:_ZNK20IasMediaTransportAvb15IasThreadResult8toStringB5cxx11Ev
libias-media_transport-avb_streamhandler.so.0.0.1:_ZNK20IasMediaTransportAvb19IasAlsaWorkerThread14checkParameterEPNS_17IasAvbClockDomainEjj
libias-media_transport-avb_streamhandler.so.0.0.1:_ZNK20IasMediaTransportAvb19IasAvbReceiveEngine16getAvbStreamInfoERKNS_14IasAvbStreamIdERSt6vectorINS_27IasAvbAudioStreamAttributesESaIS5_EERS4_INS_27IasAvbVideoStreamAttributesESaIS9_EERS4_INS_36IasAvbClockReferenceStreamAttributesESaISD_EE
libias-media_transport-avb_streamhandler.so.0.0.1:_ZNK20IasMediaTransportAvb19IasAvbReceiveEngine18checkStreamIdInUseERKNS_14IasAvbStreamIdE
libias-media_transport-avb_streamhandler.so.0.0.1:_ZNK20IasMediaTransportAvb20IasAvbTransmitEngine16getAvbStreamInfoERKNS_14IasAvbStreamIdERSt6vectorINS_27IasAvbAudioStreamAttributesESaIS5_EERS4_INS_27IasAvbVideoStreamAttributesESaIS9_EERS4_INS_36IasAvbClockReferenceStreamAttributesESaISD_EE
libias-media_transport-avb_streamhandler.so.0.0.1:_ZNK20IasMediaTransportAvb20IasAvbTransmitEngine19getSequencerByClassENS_13IasAvbSrClassE
libias-media_transport-avb_streamhandler.so.0.0.1:_ZNK20IasMediaTransportAvb20IasAvbTransmitEngine20getSequencerByStreamEPNS_12IasAvbStreamE
libias-media_transport-avb_streamhandler.so.0.0.1:_ZNK20IasMediaTransportAvb21IasAvbVideoRingBuffer13getBufferSizeEv
libias-media_transport-avb_streamhandler.so.0.0.1:_ZNK20IasMediaTransportAvb21IasAvbVideoRingBuffer13getReadOffsetEv
libias-media_transport-avb_streamhandler.so.0.0.1:_ZNK20IasMediaTransportAvb21IasAvbVideoRingBuffer14getWriteOffsetEv
libias-media_transport-avb_streamhandler.so.0.0.1:_ZNK20IasMediaTransportAvb22IasAlsaHwDeviceHandler13getPeriodSizeEPj
libias-media_transport-avb_streamhandler.so.0.0.1:_ZNK20IasMediaTransportAvb22IasAlsaHwDeviceHandler13getRingBufferEPPN8IasAudio18IasAudioRingBufferE
libias-media_transport-avb_streamhandler.so.0.0.1:_ZNK20IasMediaTransportAvb23IasAvbStreamDiagnosticseqERKS0_
libias-media_transport-avb_streamhandler.so.0.0.1:_ZNK20IasMediaTransportAvb23IasAvbStreamDiagnosticsneERKS0_
libias-media_transport-avb_streamhandler.so.0.0.1:_ZNK20IasMediaTransportAvb23IasVideoStreamInterface18getLocalStreamInfoERKtRSt6vectorINS_29IasLocalVideoStreamAttributesESaIS4_EE
libias-media_transport-avb_streamhandler.so.0.0.1:_ZNK20IasMediaTransportAvb27IasAvbAudioStreamAttributeseqERKS0_
libias-media_transport-avb_streamhandler.so.0.0.1:_ZNK20IasMediaTransportAvb27IasAvbAudioStreamAttributesneERKS0_
libias-media_transport-avb_streamhandler.so.0.0.1:_ZNK20IasMediaTransportAvb27IasAvbVideoStreamAttributeseqERKS0_
libias-media_transport-avb_streamhandler.so.0.0.1:_ZNK20IasMediaTransportAvb27IasAvbVideoStreamAttributesneERKS0_
libias-media_transport-avb_streamhandler.so.0.0.1:_ZNK20IasMediaTransportAvb29IasLocalAudioStreamAttributeseqERKS0_
libias-media_transport-avb_streamhandler.so.0.0.1:_ZNK20IasMediaTransportAvb29IasLocalAudioStreamAttributesneERKS0_
libias-media_transport-avb_streamhandler.so.0.0.1:_ZNK20IasMediaTransportAvb29IasLocalVideoStreamAttributeseqERKS0_
libias-media_transport-avb_streamhandler.so.0.0.1:_ZNK20IasMediaTransportAvb29IasLocalVideoStreamAttributesneERKS0_
libias-media_transport-avb_streamhandler.so.0.0.1:_ZNK20IasMediaTransportAvb30IasAvbStreamHandlerEnvironment16queryConfigValueERKNSt7__cxx1112basic_stringIcSt11char_traitsIcESaIcEEERS6_
libias-media_transport-avb_streamhandler.so.0.0.1:_ZNK20IasMediaTransportAvb30IasAvbStreamHandlerEnvironment16queryConfigValueERKNSt7__cxx1112basic_stringIcSt11char_traitsIcESaIcEEERm
libias-media_transport-avb_streamhandler.so.0.0.1:_ZNK20IasMediaTransportAvb30IasLocalAudioStreamDiagnosticseqERKS0_
libias-media_transport-avb_streamhandler.so.0.0.1:_ZNK20IasMediaTransportAvb30IasLocalAudioStreamDiagnosticsneERKS0_
libias-media_transport-avb_streamhandler.so.0.0.1:_ZNK20IasMediaTransportAvb36IasAvbClockReferenceStreamAttributeseqERKS0_
libias-media_transport-avb_streamhandler.so.0.0.1:_ZNK20IasMediaTransportAvb36IasAvbClockReferenceStreamAttributesneERKS0_
libias-media_transport-avb_streamhandler.so.0.0.1:_ZNK20IasMediaTransportAvb9IasResult8toStringB5cxx11Ev
libias-media_transport-avb_streamhandler.so.0.0.1:_ZNK20IasMediaTransportAvb9IasThread7getNameB5cxx11Ev
libias-media_transport-avb_streamhandler.so.0.0.1:_ZThn304_N20IasMediaTransportAvb26IasAvbHwCaptureClockDomain3runEv
libias-media_transport-avb_streamhandler.so.0.0.1:_ZThn304_N20IasMediaTransportAvb26IasAvbHwCaptureClockDomain8afterRunEv
libias-media_transport-avb_streamhandler.so.0.0.1:_ZThn304_N20IasMediaTransportAvb26IasAvbHwCaptureClockDomain8shutDownEv
libias-media_transport-avb_streamhandler.so.0.0.1:_ZThn304_N20IasMediaTransportAvb26IasAvbHwCaptureClockDomain9beforeRunEv
libias-media_transport-avb_streamhandler.so.0.0.1:_ZThn304_N20IasMediaTransportAvb26IasAvbHwCaptureClockDomainD0Ev
libias-media_transport-avb_streamhandler.so.0.0.1:_ZThn304_N20IasMediaTransportAvb26IasAvbHwCaptureClockDomainD1Ev
libias-media_transport-avb_streamhandler.so.0.0.1:_ZThn56_N20IasMediaTransportAvb21IasLocalVideoInStream3runEv
libias-media_transport-avb_streamhandler.so.0.0.1:_ZThn56_N20IasMediaTransportAvb21IasLocalVideoInStream8afterRunEv
libias-media_transport-avb_streamhandler.so.0.0.1:_ZThn56_N20IasMediaTransportAvb21IasLocalVideoInStream8shutDownEv
libias-media_transport-avb_streamhandler.so.0.0.1:_ZThn56_N20IasMediaTransportAvb21IasLocalVideoInStream9beforeRunEv
libias-media_transport-avb_streamhandler.so.0.0.1:_ZThn56_N20IasMediaTransportAvb21IasLocalVideoInStreamD0Ev
libias-media_transport-avb_streamhandler.so.0.0.1:_ZThn56_N20IasMediaTransportAvb21IasLocalVideoInStreamD1Ev
libias-media_transport-avb_streamhandler.so.0.0.1:_ZThn8_N20IasMediaTransportAvb19IasAvbStreamHandler16updateLinkStatusEb
libias-media_transport-avb_streamhandler.so.0.0.1:_ZThn8_N20IasMediaTransportAvb19IasAvbStreamHandler18updateStreamStatusEmNS_17IasAvbStreamStateE
libias-media_transport-avb_streamhandler.so.0.0.1:_ZThn8_N20IasMediaTransportAvb21IasAvbClockController3runEv
libias-media_transport-avb_streamhandler.so.0.0.1:_ZThn8_N20IasMediaTransportAvb21IasAvbClockController8afterRunEv
libias-media_transport-avb_streamhandler.so.0.0.1:_ZThn8_N20IasMediaTransportAvb21IasAvbClockController8shutDownEv
libias-media_transport-avb_streamhandler.so.0.0.1:_ZThn8_N20IasMediaTransportAvb21IasAvbClockController9beforeRunEv
libias-media_transport-avb_streamhandler.so.0.0.1:_ZThn8_N20IasMediaTransportAvb21IasAvbClockControllerD0Ev
libias-media_transport-avb_streamhandler.so.0.0.1:_ZThn8_N20IasMediaTransportAvb21IasAvbClockControllerD1Ev
libias-media_transport-avb_streamhandler.so.0.0.1:_ZTv0_n152_N20IasMediaTransportAvb22IasAlsaHwDeviceHandler21writeLocalAudioBufferEtPsjRtj
libias-media_transport-avb_streamhandler.so.0.0.1:_ZTv0_n152_N20IasMediaTransportAvb26IasAlsaVirtualDeviceStream21writeLocalAudioBufferEtPsjRtj
libias-media_transport-avb_streamhandler.so.0.0.1:_ZTv0_n200_N20IasMediaTransportAvb22IasAlsaHwDeviceHandlerD0Ev
libias-media_transport-avb_streamhandler.so.0.0.1:_ZTv0_n200_N20IasMediaTransportAvb22IasAlsaHwDeviceHandlerD1Ev
libias-media_transport-avb_streamhandler.so.0.0.1:_ZTv0_n200_N20IasMediaTransportAvb26IasAlsaVirtualDeviceStreamD0Ev
libias-media_transport-avb_streamhandler.so.0.0.1:_ZTv0_n200_N20IasMediaTransportAvb26IasAlsaVirtualDeviceStreamD1Ev
libias-media_transport-avb_streamhandler.so.0.0.1:_ZTv0_n24_N20IasMediaTransportAvb17IasAvbAudioStreamD0Ev
libias-media_transport-avb_streamhandler.so.0.0.1:_ZTv0_n24_N20IasMediaTransportAvb17IasAvbAudioStreamD1Ev
libias-media_transport-avb_streamhandler.so.0.0.1:_ZTv0_n24_N20IasMediaTransportAvb17IasAvbVideoStreamD0Ev
libias-media_transport-avb_streamhandler.so.0.0.1:_ZTv0_n24_N20IasMediaTransportAvb17IasAvbVideoStreamD1Ev
libias-media_transport-avb_streamhandler.so.0.0.1:_ZTv0_n24_N20IasMediaTransportAvb22IasAlsaHwDeviceHandler4initEtjjjjjNS_17IasAvbAudioFormatEhbNSt7__cxx1112basic_stringIcSt11char_traitsIcESaIcEEENS_18IasAlsaDeviceTypesE
libias-media_transport-avb_streamhandler.so.0.0.1:_ZTv0_n24_N20IasMediaTransportAvb26IasAlsaVirtualDeviceStream4initEtjjjjjNS_17IasAvbAudioFormatEhbNSt7__cxx1112basic_stringIcSt11char_traitsIcESaIcEEENS_18IasAlsaDeviceTypesE
libias-media_transport-avb_streamhandler.so.0.0.1:_ZTv0_n24_N20IasMediaTransportAvb30IasAvbStreamHandlerEnvironment14setConfigValueERKNSt7__cxx1112basic_stringIcSt11char_traitsIcESaIcEEEm
libias-media_transport-avb_streamhandler.so.0.0.1:_ZTv0_n24_NK20IasMediaTransportAvb30IasAvbStreamHandlerEnvironment16queryConfigValueERKNSt7__cxx1112basic_stringIcSt11char_traitsIcESaIcEEERm
libias-media_transport-avb_streamhandler.so.0.0.1:_ZTv0_n32_N20IasMediaTransportAvb17IasAvbAudioStream19signalDiscontinuityENS_34IasLocalAudioStreamClientInterface18DiscontinuityEventEj
libias-media_transport-avb_streamhandler.so.0.0.1:_ZTv0_n32_N20IasMediaTransportAvb17IasAvbVideoStream19signalDiscontinuityENS_34IasLocalVideoStreamClientInterface18DiscontinuityEventEj
libias-media_transport-avb_streamhandler.so.0.0.1:_ZTv0_n32_N20IasMediaTransportAvb22IasAlsaHwDeviceHandler7cleanupEv
libias-media_transport-avb_streamhandler.so.0.0.1:_ZTv0_n32_N20IasMediaTransportAvb26IasAlsaVirtualDeviceStream7cleanupEv
libias-media_transport-avb_streamhandler.so.0.0.1:_ZTv0_n32_N20IasMediaTransportAvb30IasAvbStreamHandlerEnvironment14setConfigValueERKNSt7__cxx1112basic_stringIcSt11char_traitsIcESaIcEEES8_
libias-media_transport-avb_streamhandler.so.0.0.1:_ZTv0_n32_NK20IasMediaTransportAvb30IasAvbStreamHandlerEnvironment16queryConfigValueERKNSt7__cxx1112basic_stringIcSt11char_traitsIcESaIcEEERS6_
libias-media_transport-avb_streamhandler.so.0.0.1:_ZTv0_n40_N20IasMediaTransportAvb17IasAvbAudioStream23updateRelativeFillLevelEi
libias-media_transport-avb_streamhandler.so.0.0.1:_ZTv0_n40_N20IasMediaTransportAvb22IasAlsaHwDeviceHandler12resetBuffersEv
libias-media_transport-avb_streamhandler.so.0.0.1:_ZTv0_n40_N20IasMediaTransportAvb26IasAlsaVirtualDeviceStream12resetBuffersEv
libias-media_transport-avb_streamhandler.so.0.0.1:_ZTv0_n48_N20IasMediaTransportAvb17IasAvbAudioStream18getMaxTransmitTimeEv
libias-media_transport-avb_streamhandler.so.0.0.1:_ZTv0_n48_N20IasMediaTransportAvb22IasAlsaHwDeviceHandler18updateBufferStatusEv
libias-media_transport-avb_streamhandler.so.0.0.1:_ZTv0_n48_N20IasMediaTransportAvb26IasAlsaVirtualDeviceStream18updateBufferStatusEv
libias-media_transport-avb_streamhandler.so.0.0.1:_ZTv0_n56_N20IasMediaTransportAvb17IasAvbAudioStream24getMinTransmitBufferSizeEj
libias-media_transport-avb_streamhandler.so.0.0.1:avb_safe_memcpy
libias-media_transport-avb_streamhandler.so.0.0.1:avb_safe_strncpy
libias-media_transport-avb_streamhandler.so.0.0.1:igb_attach
libias-media_transport-avb_streamhandler.so.0.0.1:igb_attach_rx
libias-media_transport-avb_streamhandler.so.0.0.1:igb_attach_tx
libias-media_transport-avb_streamhandler.so.0.0.1:igb_clean
libias-media_transport-avb_streamhandler.so.0.0.1:igb_clear_flex_filter
libias-media_transport-avb_streamhandler.so.0.0.1:igb_detach
libias-media_transport-avb_streamhandler.so.0.0.1:igb_dma_free_page
libias-media_transport-avb_streamhandler.so.0.0.1:igb_dma_malloc_page
libias-media_transport-avb_streamhandler.so.0.0.1:igb_get_mac_addr
libias-media_transport-avb_streamhandler.so.0.0.1:igb_get_wallclock
libias-media_transport-avb_streamhandler.so.0.0.1:igb_gettime
libias-media_transport-avb_streamhandler.so.0.0.1:igb_init
libias-media_transport-avb_streamhandler.so.0.0.1:igb_lock
libias-media_transport-avb_streamhandler.so.0.0.1:igb_probe
libias-media_transport-avb_streamhandler.so.0.0.1:igb_readreg
libias-media_transport-avb_streamhandler.so.0.0.1:igb_receive
libias-media_transport-avb_streamhandler.so.0.0.1:igb_refresh_buffers
libias-media_transport-avb_streamhandler.so.0.0.1:igb_resume
libias-media_transport-avb_streamhandler.so.0.0.1:igb_set_class_bandwidth
libias-media_transport-avb_streamhandler.so.0.0.1:igb_set_class_bandwidth2
libias-media_transport-avb_streamhandler.so.0.0.1:igb_setup_flex_filter
libias-media_transport-avb_streamhandler.so.0.0.1:igb_suspend
libias-media_transport-avb_streamhandler.so.0.0.1:igb_trigger
libias-media_transport-avb_streamhandler.so.0.0.1:igb_unlock
libias-media_transport-avb_streamhandler.so.0.0.1:igb_writereg
libias-media_transport-avb_streamhandler.so.0.0.1:igb_xmit
libias-media_transport-avb_streamhandler.so.0.0.1:timespec_addns
libias-media_transport-avb_streamhandler.so.0.0.1:timespec_subtract
